	.file	"server.cpp"
	.section	.ctors,"aw",@progbits
	.align 4
	.long	_GLOBAL__I__Z7connectv
	.section	.text._ZnwjPv,"axG",@progbits,_ZnwjPv,comdat
	.align 2
	.weak	_ZnwjPv
	.type	_ZnwjPv, @function
_ZnwjPv:
.LFB255:
	pushl	%ebp
.LCFI0:
	movl	%esp, %ebp
.LCFI1:
	movl	12(%ebp), %eax
	popl	%ebp
	ret
.LFE255:
	.size	_ZnwjPv, .-_ZnwjPv
.globl __gxx_personality_v0
	.section	.text._ZdlPvS_,"axG",@progbits,_ZdlPvS_,comdat
	.align 2
	.weak	_ZdlPvS_
	.type	_ZdlPvS_, @function
_ZdlPvS_:
.LFB257:
	pushl	%ebp
.LCFI2:
	movl	%esp, %ebp
.LCFI3:
	popl	%ebp
	ret
.LFE257:
	.size	_ZdlPvS_, .-_ZdlPvS_
	.section	.text._ZSt16__deque_buf_sizej,"axG",@progbits,_ZSt16__deque_buf_sizej,comdat
	.align 2
	.weak	_ZSt16__deque_buf_sizej
	.type	_ZSt16__deque_buf_sizej, @function
_ZSt16__deque_buf_sizej:
.LFB1428:
	pushl	%ebp
.LCFI4:
	movl	%esp, %ebp
.LCFI5:
	subl	$4, %esp
.LCFI6:
	cmpl	$511, 8(%ebp)
	ja	.L6
	movl	$512, %eax
	movl	$0, %edx
	divl	8(%ebp)
	movl	%eax, -4(%ebp)
	jmp	.L8
.L6:
	movl	$1, -4(%ebp)
.L8:
	movl	-4(%ebp), %eax
	leave
	ret
.LFE1428:
	.size	_ZSt16__deque_buf_sizej, .-_ZSt16__deque_buf_sizej
	.section	.text._ZN10UncopyableC2Ev,"axG",@progbits,_ZN10UncopyableC2Ev,comdat
	.align 2
	.weak	_ZN10UncopyableC2Ev
	.type	_ZN10UncopyableC2Ev, @function
_ZN10UncopyableC2Ev:
.LFB1796:
	pushl	%ebp
.LCFI7:
	movl	%esp, %ebp
.LCFI8:
	popl	%ebp
	ret
.LFE1796:
	.size	_ZN10UncopyableC2Ev, .-_ZN10UncopyableC2Ev
	.section	.text._ZN9ConnectorC1Eb,"axG",@progbits,_ZN9ConnectorC1Eb,comdat
	.align 2
	.weak	_ZN9ConnectorC1Eb
	.type	_ZN9ConnectorC1Eb, @function
_ZN9ConnectorC1Eb:
.LFB1800:
	pushl	%ebp
.LCFI9:
	movl	%esp, %ebp
.LCFI10:
	subl	$8, %esp
.LCFI11:
	movl	12(%ebp), %eax
	movb	%al, -4(%ebp)
	movl	8(%ebp), %eax
	movl	%eax, (%esp)
	call	_ZN10UncopyableC2Ev
	movl	$_ZTV9Connector+8, %edx
	movl	8(%ebp), %eax
	movl	%edx, (%eax)
	movl	8(%ebp), %edx
	movzbl	-4(%ebp), %eax
	movb	%al, 4(%edx)
	movl	8(%ebp), %eax
	movl	$0, 8(%eax)
	movl	8(%ebp), %eax
	movl	$0, 12(%eax)
	movl	8(%ebp), %eax
	movl	$-1, 16(%eax)
	leave
	ret
.LFE1800:
	.size	_ZN9ConnectorC1Eb, .-_ZN9ConnectorC1Eb
	.section	.text._ZSt3minIjERKT_S2_S2_,"axG",@progbits,_ZSt3minIjERKT_S2_S2_,comdat
	.align 2
	.weak	_ZSt3minIjERKT_S2_S2_
	.type	_ZSt3minIjERKT_S2_S2_, @function
_ZSt3minIjERKT_S2_S2_:
.LFB1869:
	pushl	%ebp
.LCFI12:
	movl	%esp, %ebp
.LCFI13:
	subl	$4, %esp
.LCFI14:
	movl	12(%ebp), %eax
	movl	(%eax), %edx
	movl	8(%ebp), %eax
	movl	(%eax), %eax
	cmpl	%eax, %edx
	jae	.L15
	movl	12(%ebp), %eax
	movl	%eax, -4(%ebp)
	jmp	.L17
.L15:
	movl	8(%ebp), %eax
	movl	%eax, -4(%ebp)
.L17:
	movl	-4(%ebp), %eax
	leave
	ret
.LFE1869:
	.size	_ZSt3minIjERKT_S2_S2_, .-_ZSt3minIjERKT_S2_S2_
	.text
	.align 2
	.type	_ZSt17__verify_groupingPKcjRKSs, @function
_ZSt17__verify_groupingPKcjRKSs:
.LFB1358:
	pushl	%ebp
.LCFI15:
	movl	%esp, %ebp
.LCFI16:
	pushl	%ebx
.LCFI17:
	subl	$52, %esp
.LCFI18:
	movl	16(%ebp), %eax
	movl	%eax, (%esp)
	call	_ZNKSs4sizeEv
	subl	$1, %eax
	movl	%eax, -12(%ebp)
	movl	12(%ebp), %eax
	subl	$1, %eax
	movl	%eax, -20(%ebp)
	leal	-20(%ebp), %eax
	movl	%eax, 4(%esp)
	leal	-12(%ebp), %eax
	movl	%eax, (%esp)
	call	_ZSt3minIjERKT_S2_S2_
	movl	(%eax), %eax
	movl	%eax, -16(%ebp)
	movl	-12(%ebp), %eax
	movl	%eax, -24(%ebp)
	movb	$1, -5(%ebp)
	movl	$0, -28(%ebp)
	jmp	.L20
.L21:
	movl	-24(%ebp), %eax
	movl	%eax, 4(%esp)
	movl	16(%ebp), %eax
	movl	%eax, (%esp)
	call	_ZNKSsixEj
	movzbl	(%eax), %edx
	movl	-28(%ebp), %eax
	addl	8(%ebp), %eax
	movzbl	(%eax), %eax
	cmpb	%al, %dl
	sete	%al
	movb	%al, -5(%ebp)
	subl	$1, -24(%ebp)
	addl	$1, -28(%ebp)
.L20:
	movl	-28(%ebp), %eax
	cmpl	-16(%ebp), %eax
	jae	.L24
	cmpb	$0, -5(%ebp)
	jne	.L21
	jmp	.L24
.L25:
	movl	-24(%ebp), %eax
	movl	%eax, 4(%esp)
	movl	16(%ebp), %eax
	movl	%eax, (%esp)
	call	_ZNKSsixEj
	movzbl	(%eax), %edx
	movl	-16(%ebp), %eax
	addl	8(%ebp), %eax
	movzbl	(%eax), %eax
	cmpb	%al, %dl
	sete	%al
	movb	%al, -5(%ebp)
	subl	$1, -24(%ebp)
.L24:
	cmpl	$0, -24(%ebp)
	je	.L26
	cmpb	$0, -5(%ebp)
	jne	.L25
.L26:
	movl	-16(%ebp), %eax
	addl	8(%ebp), %eax
	movzbl	(%eax), %eax
	testb	%al, %al
	jle	.L28
	movzbl	-5(%ebp), %ebx
	movl	$0, 4(%esp)
	movl	16(%ebp), %eax
	movl	%eax, (%esp)
	call	_ZNKSsixEj
	movzbl	(%eax), %edx
	movl	-16(%ebp), %eax
	addl	8(%ebp), %eax
	movzbl	(%eax), %eax
	cmpb	%al, %dl
	setle	%al
	movzbl	%al, %eax
	andl	%ebx, %eax
	testl	%eax, %eax
	setne	%al
	movb	%al, -5(%ebp)
.L28:
	movzbl	-5(%ebp), %eax
	addl	$52, %esp
	popl	%ebx
	popl	%ebp
	ret
.LFE1358:
	.size	_ZSt17__verify_groupingPKcjRKSs, .-_ZSt17__verify_groupingPKcjRKSs
	.section	.text._ZNKSt6vectorIP8ConnInfoSaIS1_EE4sizeEv,"axG",@progbits,_ZNKSt6vectorIP8ConnInfoSaIS1_EE4sizeEv,comdat
	.align 2
	.weak	_ZNKSt6vectorIP8ConnInfoSaIS1_EE4sizeEv
	.type	_ZNKSt6vectorIP8ConnInfoSaIS1_EE4sizeEv, @function
_ZNKSt6vectorIP8ConnInfoSaIS1_EE4sizeEv:
.LFB1926:
	pushl	%ebp
.LCFI19:
	movl	%esp, %ebp
.LCFI20:
	movl	8(%ebp), %eax
	movl	4(%eax), %eax
	movl	%eax, %edx
	movl	8(%ebp), %eax
	movl	(%eax), %eax
	movl	%edx, %ecx
	subl	%eax, %ecx
	movl	%ecx, %eax
	sarl	$2, %eax
	popl	%ebp
	ret
.LFE1926:
	.size	_ZNKSt6vectorIP8ConnInfoSaIS1_EE4sizeEv, .-_ZNKSt6vectorIP8ConnInfoSaIS1_EE4sizeEv
	.section	.text._ZNSt6vectorIP8ConnInfoSaIS1_EEixEj,"axG",@progbits,_ZNSt6vectorIP8ConnInfoSaIS1_EEixEj,comdat
	.align 2
	.weak	_ZNSt6vectorIP8ConnInfoSaIS1_EEixEj
	.type	_ZNSt6vectorIP8ConnInfoSaIS1_EEixEj, @function
_ZNSt6vectorIP8ConnInfoSaIS1_EEixEj:
.LFB1927:
	pushl	%ebp
.LCFI21:
	movl	%esp, %ebp
.LCFI22:
	movl	8(%ebp), %eax
	movl	(%eax), %edx
	movl	12(%ebp), %eax
	sall	$2, %eax
	leal	(%edx,%eax), %eax
	popl	%ebp
	ret
.LFE1927:
	.size	_ZNSt6vectorIP8ConnInfoSaIS1_EEixEj, .-_ZNSt6vectorIP8ConnInfoSaIS1_EEixEj
	.section	.text._ZN9__gnu_cxx13new_allocatorI10LSP_PacketEC2Ev,"axG",@progbits,_ZN9__gnu_cxx13new_allocatorI10LSP_PacketEC2Ev,comdat
	.align 2
	.weak	_ZN9__gnu_cxx13new_allocatorI10LSP_PacketEC2Ev
	.type	_ZN9__gnu_cxx13new_allocatorI10LSP_PacketEC2Ev, @function
_ZN9__gnu_cxx13new_allocatorI10LSP_PacketEC2Ev:
.LFB1935:
	pushl	%ebp
.LCFI23:
	movl	%esp, %ebp
.LCFI24:
	popl	%ebp
	ret
.LFE1935:
	.size	_ZN9__gnu_cxx13new_allocatorI10LSP_PacketEC2Ev, .-_ZN9__gnu_cxx13new_allocatorI10LSP_PacketEC2Ev
	.section	.text._ZNSaI10LSP_PacketEC1Ev,"axG",@progbits,_ZNSaI10LSP_PacketEC1Ev,comdat
	.align 2
	.weak	_ZNSaI10LSP_PacketEC1Ev
	.type	_ZNSaI10LSP_PacketEC1Ev, @function
_ZNSaI10LSP_PacketEC1Ev:
.LFB1882:
	pushl	%ebp
.LCFI25:
	movl	%esp, %ebp
.LCFI26:
	subl	$8, %esp
.LCFI27:
	movl	8(%ebp), %eax
	movl	%eax, (%esp)
	call	_ZN9__gnu_cxx13new_allocatorI10LSP_PacketEC2Ev
	leave
	ret
.LFE1882:
	.size	_ZNSaI10LSP_PacketEC1Ev, .-_ZNSaI10LSP_PacketEC1Ev
	.section	.text._ZN9__gnu_cxx13new_allocatorI10LSP_PacketED2Ev,"axG",@progbits,_ZN9__gnu_cxx13new_allocatorI10LSP_PacketED2Ev,comdat
	.align 2
	.weak	_ZN9__gnu_cxx13new_allocatorI10LSP_PacketED2Ev
	.type	_ZN9__gnu_cxx13new_allocatorI10LSP_PacketED2Ev, @function
_ZN9__gnu_cxx13new_allocatorI10LSP_PacketED2Ev:
.LFB1938:
	pushl	%ebp
.LCFI28:
	movl	%esp, %ebp
.LCFI29:
	popl	%ebp
	ret
.LFE1938:
	.size	_ZN9__gnu_cxx13new_allocatorI10LSP_PacketED2Ev, .-_ZN9__gnu_cxx13new_allocatorI10LSP_PacketED2Ev
	.section	.text._ZNSaI10LSP_PacketED2Ev,"axG",@progbits,_ZNSaI10LSP_PacketED2Ev,comdat
	.align 2
	.weak	_ZNSaI10LSP_PacketED2Ev
	.type	_ZNSaI10LSP_PacketED2Ev, @function
_ZNSaI10LSP_PacketED2Ev:
.LFB1884:
	pushl	%ebp
.LCFI30:
	movl	%esp, %ebp
.LCFI31:
	subl	$8, %esp
.LCFI32:
	movl	8(%ebp), %eax
	movl	%eax, (%esp)
	call	_ZN9__gnu_cxx13new_allocatorI10LSP_PacketED2Ev
	leave
	ret
.LFE1884:
	.size	_ZNSaI10LSP_PacketED2Ev, .-_ZNSaI10LSP_PacketED2Ev
	.section	.text._ZNSaI10LSP_PacketED1Ev,"axG",@progbits,_ZNSaI10LSP_PacketED1Ev,comdat
	.align 2
	.weak	_ZNSaI10LSP_PacketED1Ev
	.type	_ZNSaI10LSP_PacketED1Ev, @function
_ZNSaI10LSP_PacketED1Ev:
.LFB1885:
	pushl	%ebp
.LCFI33:
	movl	%esp, %ebp
.LCFI34:
	subl	$8, %esp
.LCFI35:
	movl	8(%ebp), %eax
	movl	%eax, (%esp)
	call	_ZN9__gnu_cxx13new_allocatorI10LSP_PacketED2Ev
	leave
	ret
.LFE1885:
	.size	_ZNSaI10LSP_PacketED1Ev, .-_ZNSaI10LSP_PacketED1Ev
	.section	.text._ZN9__gnu_cxx13new_allocatorI10LSP_PacketEC2ERKS2_,"axG",@progbits,_ZN9__gnu_cxx13new_allocatorI10LSP_PacketEC2ERKS2_,comdat
	.align 2
	.weak	_ZN9__gnu_cxx13new_allocatorI10LSP_PacketEC2ERKS2_
	.type	_ZN9__gnu_cxx13new_allocatorI10LSP_PacketEC2ERKS2_, @function
_ZN9__gnu_cxx13new_allocatorI10LSP_PacketEC2ERKS2_:
.LFB1941:
	pushl	%ebp
.LCFI36:
	movl	%esp, %ebp
.LCFI37:
	popl	%ebp
	ret
.LFE1941:
	.size	_ZN9__gnu_cxx13new_allocatorI10LSP_PacketEC2ERKS2_, .-_ZN9__gnu_cxx13new_allocatorI10LSP_PacketEC2ERKS2_
	.section	.text._ZNSaI10LSP_PacketEC2ERKS0_,"axG",@progbits,_ZNSaI10LSP_PacketEC2ERKS0_,comdat
	.align 2
	.weak	_ZNSaI10LSP_PacketEC2ERKS0_
	.type	_ZNSaI10LSP_PacketEC2ERKS0_, @function
_ZNSaI10LSP_PacketEC2ERKS0_:
.LFB1887:
	pushl	%ebp
.LCFI38:
	movl	%esp, %ebp
.LCFI39:
	subl	$8, %esp
.LCFI40:
	movl	12(%ebp), %eax
	movl	8(%ebp), %edx
	movl	%eax, 4(%esp)
	movl	%edx, (%esp)
	call	_ZN9__gnu_cxx13new_allocatorI10LSP_PacketEC2ERKS2_
	leave
	ret
.LFE1887:
	.size	_ZNSaI10LSP_PacketEC2ERKS0_, .-_ZNSaI10LSP_PacketEC2ERKS0_
	.section	.text._ZNSaI10LSP_PacketEC1ERKS0_,"axG",@progbits,_ZNSaI10LSP_PacketEC1ERKS0_,comdat
	.align 2
	.weak	_ZNSaI10LSP_PacketEC1ERKS0_
	.type	_ZNSaI10LSP_PacketEC1ERKS0_, @function
_ZNSaI10LSP_PacketEC1ERKS0_:
.LFB1888:
	pushl	%ebp
.LCFI41:
	movl	%esp, %ebp
.LCFI42:
	subl	$8, %esp
.LCFI43:
	movl	12(%ebp), %eax
	movl	8(%ebp), %edx
	movl	%eax, 4(%esp)
	movl	%edx, (%esp)
	call	_ZN9__gnu_cxx13new_allocatorI10LSP_PacketEC2ERKS2_
	leave
	ret
.LFE1888:
	.size	_ZNSaI10LSP_PacketEC1ERKS0_, .-_ZNSaI10LSP_PacketEC1ERKS0_
	.section	.text._ZNSt11_Deque_baseI10LSP_PacketSaIS0_EE11_Deque_implD1Ev,"axG",@progbits,_ZNSt11_Deque_baseI10LSP_PacketSaIS0_EE11_Deque_implD1Ev,comdat
	.align 2
	.weak	_ZNSt11_Deque_baseI10LSP_PacketSaIS0_EE11_Deque_implD1Ev
	.type	_ZNSt11_Deque_baseI10LSP_PacketSaIS0_EE11_Deque_implD1Ev, @function
_ZNSt11_Deque_baseI10LSP_PacketSaIS0_EE11_Deque_implD1Ev:
.LFB1946:
	pushl	%ebp
.LCFI44:
	movl	%esp, %ebp
.LCFI45:
	subl	$8, %esp
.LCFI46:
	movl	8(%ebp), %eax
	movl	%eax, (%esp)
	call	_ZNSaI10LSP_PacketED2Ev
	leave
	ret
.LFE1946:
	.size	_ZNSt11_Deque_baseI10LSP_PacketSaIS0_EE11_Deque_implD1Ev, .-_ZNSt11_Deque_baseI10LSP_PacketSaIS0_EE11_Deque_implD1Ev
	.section	.text._ZNSt11_Deque_baseI10LSP_PacketSaIS0_EE19_M_get_Tp_allocatorEv,"axG",@progbits,_ZNSt11_Deque_baseI10LSP_PacketSaIS0_EE19_M_get_Tp_allocatorEv,comdat
	.align 2
	.weak	_ZNSt11_Deque_baseI10LSP_PacketSaIS0_EE19_M_get_Tp_allocatorEv
	.type	_ZNSt11_Deque_baseI10LSP_PacketSaIS0_EE19_M_get_Tp_allocatorEv, @function
_ZNSt11_Deque_baseI10LSP_PacketSaIS0_EE19_M_get_Tp_allocatorEv:
.LFB1954:
	pushl	%ebp
.LCFI47:
	movl	%esp, %ebp
.LCFI48:
	movl	8(%ebp), %eax
	popl	%ebp
	ret
.LFE1954:
	.size	_ZNSt11_Deque_baseI10LSP_PacketSaIS0_EE19_M_get_Tp_allocatorEv, .-_ZNSt11_Deque_baseI10LSP_PacketSaIS0_EE19_M_get_Tp_allocatorEv
	.section	.text._ZNSt15_Deque_iteratorI10LSP_PacketRS0_PS0_EC1ERKS3_,"axG",@progbits,_ZNSt15_Deque_iteratorI10LSP_PacketRS0_PS0_EC1ERKS3_,comdat
	.align 2
	.weak	_ZNSt15_Deque_iteratorI10LSP_PacketRS0_PS0_EC1ERKS3_
	.type	_ZNSt15_Deque_iteratorI10LSP_PacketRS0_PS0_EC1ERKS3_, @function
_ZNSt15_Deque_iteratorI10LSP_PacketRS0_PS0_EC1ERKS3_:
.LFB1957:
	pushl	%ebp
.LCFI49:
	movl	%esp, %ebp
.LCFI50:
	movl	12(%ebp), %eax
	movl	(%eax), %edx
	movl	8(%ebp), %eax
	movl	%edx, (%eax)
	movl	12(%ebp), %eax
	movl	4(%eax), %edx
	movl	8(%ebp), %eax
	movl	%edx, 4(%eax)
	movl	12(%ebp), %eax
	movl	8(%eax), %edx
	movl	8(%ebp), %eax
	movl	%edx, 8(%eax)
	movl	12(%ebp), %eax
	movl	12(%eax), %edx
	movl	8(%ebp), %eax
	movl	%edx, 12(%eax)
	popl	%ebp
	ret
.LFE1957:
	.size	_ZNSt15_Deque_iteratorI10LSP_PacketRS0_PS0_EC1ERKS3_, .-_ZNSt15_Deque_iteratorI10LSP_PacketRS0_PS0_EC1ERKS3_
	.section	.text._ZNSt5dequeI10LSP_PacketSaIS0_EE3endEv,"axG",@progbits,_ZNSt5dequeI10LSP_PacketSaIS0_EE3endEv,comdat
	.align 2
	.weak	_ZNSt5dequeI10LSP_PacketSaIS0_EE3endEv
	.type	_ZNSt5dequeI10LSP_PacketSaIS0_EE3endEv, @function
_ZNSt5dequeI10LSP_PacketSaIS0_EE3endEv:
.LFB1953:
	pushl	%ebp
.LCFI51:
	movl	%esp, %ebp
.LCFI52:
	pushl	%ebx
.LCFI53:
	subl	$20, %esp
.LCFI54:
	movl	8(%ebp), %ebx
	movl	%ebx, %edx
	movl	12(%ebp), %eax
	addl	$24, %eax
	movl	%eax, 4(%esp)
	movl	%edx, (%esp)
	call	_ZNSt15_Deque_iteratorI10LSP_PacketRS0_PS0_EC1ERKS3_
	movl	%ebx, %eax
	addl	$20, %esp
	popl	%ebx
	popl	%ebp
	ret	$4
.LFE1953:
	.size	_ZNSt5dequeI10LSP_PacketSaIS0_EE3endEv, .-_ZNSt5dequeI10LSP_PacketSaIS0_EE3endEv
	.section	.text._ZNSt5dequeI10LSP_PacketSaIS0_EE5beginEv,"axG",@progbits,_ZNSt5dequeI10LSP_PacketSaIS0_EE5beginEv,comdat
	.align 2
	.weak	_ZNSt5dequeI10LSP_PacketSaIS0_EE5beginEv
	.type	_ZNSt5dequeI10LSP_PacketSaIS0_EE5beginEv, @function
_ZNSt5dequeI10LSP_PacketSaIS0_EE5beginEv:
.LFB1952:
	pushl	%ebp
.LCFI55:
	movl	%esp, %ebp
.LCFI56:
	pushl	%ebx
.LCFI57:
	subl	$20, %esp
.LCFI58:
	movl	8(%ebp), %ebx
	movl	%ebx, %edx
	movl	12(%ebp), %eax
	addl	$8, %eax
	movl	%eax, 4(%esp)
	movl	%edx, (%esp)
	call	_ZNSt15_Deque_iteratorI10LSP_PacketRS0_PS0_EC1ERKS3_
	movl	%ebx, %eax
	addl	$20, %esp
	popl	%ebx
	popl	%ebp
	ret	$4
.LFE1952:
	.size	_ZNSt5dequeI10LSP_PacketSaIS0_EE5beginEv, .-_ZNSt5dequeI10LSP_PacketSaIS0_EE5beginEv
	.section	.text._ZNKSt11_Deque_baseI10LSP_PacketSaIS0_EE19_M_get_Tp_allocatorEv,"axG",@progbits,_ZNKSt11_Deque_baseI10LSP_PacketSaIS0_EE19_M_get_Tp_allocatorEv,comdat
	.align 2
	.weak	_ZNKSt11_Deque_baseI10LSP_PacketSaIS0_EE19_M_get_Tp_allocatorEv
	.type	_ZNKSt11_Deque_baseI10LSP_PacketSaIS0_EE19_M_get_Tp_allocatorEv, @function
_ZNKSt11_Deque_baseI10LSP_PacketSaIS0_EE19_M_get_Tp_allocatorEv:
.LFB1959:
	pushl	%ebp
.LCFI59:
	movl	%esp, %ebp
.LCFI60:
	movl	8(%ebp), %eax
	popl	%ebp
	ret
.LFE1959:
	.size	_ZNKSt11_Deque_baseI10LSP_PacketSaIS0_EE19_M_get_Tp_allocatorEv, .-_ZNKSt11_Deque_baseI10LSP_PacketSaIS0_EE19_M_get_Tp_allocatorEv
	.section	.text._ZN9__gnu_cxx13new_allocatorIP8ConnInfoEC2Ev,"axG",@progbits,_ZN9__gnu_cxx13new_allocatorIP8ConnInfoEC2Ev,comdat
	.align 2
	.weak	_ZN9__gnu_cxx13new_allocatorIP8ConnInfoEC2Ev
	.type	_ZN9__gnu_cxx13new_allocatorIP8ConnInfoEC2Ev, @function
_ZN9__gnu_cxx13new_allocatorIP8ConnInfoEC2Ev:
.LFB1965:
	pushl	%ebp
.LCFI61:
	movl	%esp, %ebp
.LCFI62:
	popl	%ebp
	ret
.LFE1965:
	.size	_ZN9__gnu_cxx13new_allocatorIP8ConnInfoEC2Ev, .-_ZN9__gnu_cxx13new_allocatorIP8ConnInfoEC2Ev
	.section	.text._ZNSaIP8ConnInfoEC1Ev,"axG",@progbits,_ZNSaIP8ConnInfoEC1Ev,comdat
	.align 2
	.weak	_ZNSaIP8ConnInfoEC1Ev
	.type	_ZNSaIP8ConnInfoEC1Ev, @function
_ZNSaIP8ConnInfoEC1Ev:
.LFB1903:
	pushl	%ebp
.LCFI63:
	movl	%esp, %ebp
.LCFI64:
	subl	$8, %esp
.LCFI65:
	movl	8(%ebp), %eax
	movl	%eax, (%esp)
	call	_ZN9__gnu_cxx13new_allocatorIP8ConnInfoEC2Ev
	leave
	ret
.LFE1903:
	.size	_ZNSaIP8ConnInfoEC1Ev, .-_ZNSaIP8ConnInfoEC1Ev
	.section	.text._ZN9__gnu_cxx13new_allocatorIP8ConnInfoED2Ev,"axG",@progbits,_ZN9__gnu_cxx13new_allocatorIP8ConnInfoED2Ev,comdat
	.align 2
	.weak	_ZN9__gnu_cxx13new_allocatorIP8ConnInfoED2Ev
	.type	_ZN9__gnu_cxx13new_allocatorIP8ConnInfoED2Ev, @function
_ZN9__gnu_cxx13new_allocatorIP8ConnInfoED2Ev:
.LFB1968:
	pushl	%ebp
.LCFI66:
	movl	%esp, %ebp
.LCFI67:
	popl	%ebp
	ret
.LFE1968:
	.size	_ZN9__gnu_cxx13new_allocatorIP8ConnInfoED2Ev, .-_ZN9__gnu_cxx13new_allocatorIP8ConnInfoED2Ev
	.section	.text._ZNSaIP8ConnInfoED1Ev,"axG",@progbits,_ZNSaIP8ConnInfoED1Ev,comdat
	.align 2
	.weak	_ZNSaIP8ConnInfoED1Ev
	.type	_ZNSaIP8ConnInfoED1Ev, @function
_ZNSaIP8ConnInfoED1Ev:
.LFB1906:
	pushl	%ebp
.LCFI68:
	movl	%esp, %ebp
.LCFI69:
	subl	$8, %esp
.LCFI70:
	movl	8(%ebp), %eax
	movl	%eax, (%esp)
	call	_ZN9__gnu_cxx13new_allocatorIP8ConnInfoED2Ev
	leave
	ret
.LFE1906:
	.size	_ZNSaIP8ConnInfoED1Ev, .-_ZNSaIP8ConnInfoED1Ev
	.section	.text._ZNSaIP8ConnInfoED2Ev,"axG",@progbits,_ZNSaIP8ConnInfoED2Ev,comdat
	.align 2
	.weak	_ZNSaIP8ConnInfoED2Ev
	.type	_ZNSaIP8ConnInfoED2Ev, @function
_ZNSaIP8ConnInfoED2Ev:
.LFB1905:
	pushl	%ebp
.LCFI71:
	movl	%esp, %ebp
.LCFI72:
	subl	$8, %esp
.LCFI73:
	movl	8(%ebp), %eax
	movl	%eax, (%esp)
	call	_ZN9__gnu_cxx13new_allocatorIP8ConnInfoED2Ev
	leave
	ret
.LFE1905:
	.size	_ZNSaIP8ConnInfoED2Ev, .-_ZNSaIP8ConnInfoED2Ev
	.section	.text._ZN9__gnu_cxx13new_allocatorIP8ConnInfoEC2ERKS3_,"axG",@progbits,_ZN9__gnu_cxx13new_allocatorIP8ConnInfoEC2ERKS3_,comdat
	.align 2
	.weak	_ZN9__gnu_cxx13new_allocatorIP8ConnInfoEC2ERKS3_
	.type	_ZN9__gnu_cxx13new_allocatorIP8ConnInfoEC2ERKS3_, @function
_ZN9__gnu_cxx13new_allocatorIP8ConnInfoEC2ERKS3_:
.LFB1971:
	pushl	%ebp
.LCFI74:
	movl	%esp, %ebp
.LCFI75:
	popl	%ebp
	ret
.LFE1971:
	.size	_ZN9__gnu_cxx13new_allocatorIP8ConnInfoEC2ERKS3_, .-_ZN9__gnu_cxx13new_allocatorIP8ConnInfoEC2ERKS3_
	.section	.text._ZNSaIP8ConnInfoEC2ERKS1_,"axG",@progbits,_ZNSaIP8ConnInfoEC2ERKS1_,comdat
	.align 2
	.weak	_ZNSaIP8ConnInfoEC2ERKS1_
	.type	_ZNSaIP8ConnInfoEC2ERKS1_, @function
_ZNSaIP8ConnInfoEC2ERKS1_:
.LFB1908:
	pushl	%ebp
.LCFI76:
	movl	%esp, %ebp
.LCFI77:
	subl	$8, %esp
.LCFI78:
	movl	12(%ebp), %eax
	movl	8(%ebp), %edx
	movl	%eax, 4(%esp)
	movl	%edx, (%esp)
	call	_ZN9__gnu_cxx13new_allocatorIP8ConnInfoEC2ERKS3_
	leave
	ret
.LFE1908:
	.size	_ZNSaIP8ConnInfoEC2ERKS1_, .-_ZNSaIP8ConnInfoEC2ERKS1_
	.section	.text._ZNSaIP8ConnInfoEC1ERKS1_,"axG",@progbits,_ZNSaIP8ConnInfoEC1ERKS1_,comdat
	.align 2
	.weak	_ZNSaIP8ConnInfoEC1ERKS1_
	.type	_ZNSaIP8ConnInfoEC1ERKS1_, @function
_ZNSaIP8ConnInfoEC1ERKS1_:
.LFB1909:
	pushl	%ebp
.LCFI79:
	movl	%esp, %ebp
.LCFI80:
	subl	$8, %esp
.LCFI81:
	movl	12(%ebp), %eax
	movl	8(%ebp), %edx
	movl	%eax, 4(%esp)
	movl	%edx, (%esp)
	call	_ZN9__gnu_cxx13new_allocatorIP8ConnInfoEC2ERKS3_
	leave
	ret
.LFE1909:
	.size	_ZNSaIP8ConnInfoEC1ERKS1_, .-_ZNSaIP8ConnInfoEC1ERKS1_
	.section	.text._ZNSt12_Vector_baseIP8ConnInfoSaIS1_EE12_Vector_implD1Ev,"axG",@progbits,_ZNSt12_Vector_baseIP8ConnInfoSaIS1_EE12_Vector_implD1Ev,comdat
	.align 2
	.weak	_ZNSt12_Vector_baseIP8ConnInfoSaIS1_EE12_Vector_implD1Ev
	.type	_ZNSt12_Vector_baseIP8ConnInfoSaIS1_EE12_Vector_implD1Ev, @function
_ZNSt12_Vector_baseIP8ConnInfoSaIS1_EE12_Vector_implD1Ev:
.LFB1976:
	pushl	%ebp
.LCFI82:
	movl	%esp, %ebp
.LCFI83:
	subl	$8, %esp
.LCFI84:
	movl	8(%ebp), %eax
	movl	%eax, (%esp)
	call	_ZNSaIP8ConnInfoED2Ev
	leave
	ret
.LFE1976:
	.size	_ZNSt12_Vector_baseIP8ConnInfoSaIS1_EE12_Vector_implD1Ev, .-_ZNSt12_Vector_baseIP8ConnInfoSaIS1_EE12_Vector_implD1Ev
	.section	.text._ZNSt12_Vector_baseIP8ConnInfoSaIS1_EE19_M_get_Tp_allocatorEv,"axG",@progbits,_ZNSt12_Vector_baseIP8ConnInfoSaIS1_EE19_M_get_Tp_allocatorEv,comdat
	.align 2
	.weak	_ZNSt12_Vector_baseIP8ConnInfoSaIS1_EE19_M_get_Tp_allocatorEv
	.type	_ZNSt12_Vector_baseIP8ConnInfoSaIS1_EE19_M_get_Tp_allocatorEv, @function
_ZNSt12_Vector_baseIP8ConnInfoSaIS1_EE19_M_get_Tp_allocatorEv:
.LFB1982:
	pushl	%ebp
.LCFI85:
	movl	%esp, %ebp
.LCFI86:
	movl	8(%ebp), %eax
	popl	%ebp
	ret
.LFE1982:
	.size	_ZNSt12_Vector_baseIP8ConnInfoSaIS1_EE19_M_get_Tp_allocatorEv, .-_ZNSt12_Vector_baseIP8ConnInfoSaIS1_EE19_M_get_Tp_allocatorEv
	.section	.text._ZN9__gnu_cxx13new_allocatorIP8ConnInfoE9constructEPS2_RKS2_,"axG",@progbits,_ZN9__gnu_cxx13new_allocatorIP8ConnInfoE9constructEPS2_RKS2_,comdat
	.align 2
	.weak	_ZN9__gnu_cxx13new_allocatorIP8ConnInfoE9constructEPS2_RKS2_
	.type	_ZN9__gnu_cxx13new_allocatorIP8ConnInfoE9constructEPS2_RKS2_, @function
_ZN9__gnu_cxx13new_allocatorIP8ConnInfoE9constructEPS2_RKS2_:
.LFB1993:
	pushl	%ebp
.LCFI87:
	movl	%esp, %ebp
.LCFI88:
	subl	$24, %esp
.LCFI89:
	movl	12(%ebp), %eax
	movl	%eax, 4(%esp)
	movl	$4, (%esp)
	call	_ZnwjPv
	movl	%eax, -4(%ebp)
	cmpl	$0, -4(%ebp)
	je	.L95
	movl	16(%ebp), %eax
	movl	(%eax), %eax
	movl	-4(%ebp), %edx
	movl	%eax, (%edx)
.L95:
	leave
	ret
.LFE1993:
	.size	_ZN9__gnu_cxx13new_allocatorIP8ConnInfoE9constructEPS2_RKS2_, .-_ZN9__gnu_cxx13new_allocatorIP8ConnInfoE9constructEPS2_RKS2_
	.section	.text._ZNSt15_Deque_iteratorI10LSP_PacketRKS0_PS1_EC1ERKS_IS0_RS0_PS0_E,"axG",@progbits,_ZNSt15_Deque_iteratorI10LSP_PacketRKS0_PS1_EC1ERKS_IS0_RS0_PS0_E,comdat
	.align 2
	.weak	_ZNSt15_Deque_iteratorI10LSP_PacketRKS0_PS1_EC1ERKS_IS0_RS0_PS0_E
	.type	_ZNSt15_Deque_iteratorI10LSP_PacketRKS0_PS1_EC1ERKS_IS0_RS0_PS0_E, @function
_ZNSt15_Deque_iteratorI10LSP_PacketRKS0_PS1_EC1ERKS_IS0_RS0_PS0_E:
.LFB2007:
	pushl	%ebp
.LCFI90:
	movl	%esp, %ebp
.LCFI91:
	movl	12(%ebp), %eax
	movl	(%eax), %edx
	movl	8(%ebp), %eax
	movl	%edx, (%eax)
	movl	12(%ebp), %eax
	movl	4(%eax), %edx
	movl	8(%ebp), %eax
	movl	%edx, 4(%eax)
	movl	12(%ebp), %eax
	movl	8(%eax), %edx
	movl	8(%ebp), %eax
	movl	%edx, 8(%eax)
	movl	12(%ebp), %eax
	movl	12(%eax), %edx
	movl	8(%ebp), %eax
	movl	%edx, 12(%eax)
	popl	%ebp
	ret
.LFE2007:
	.size	_ZNSt15_Deque_iteratorI10LSP_PacketRKS0_PS1_EC1ERKS_IS0_RS0_PS0_E, .-_ZNSt15_Deque_iteratorI10LSP_PacketRKS0_PS1_EC1ERKS_IS0_RS0_PS0_E
	.section	.text._ZNKSt5dequeI10LSP_PacketSaIS0_EE3endEv,"axG",@progbits,_ZNKSt5dequeI10LSP_PacketSaIS0_EE3endEv,comdat
	.align 2
	.weak	_ZNKSt5dequeI10LSP_PacketSaIS0_EE3endEv
	.type	_ZNKSt5dequeI10LSP_PacketSaIS0_EE3endEv, @function
_ZNKSt5dequeI10LSP_PacketSaIS0_EE3endEv:
.LFB1962:
	pushl	%ebp
.LCFI92:
	movl	%esp, %ebp
.LCFI93:
	pushl	%ebx
.LCFI94:
	subl	$20, %esp
.LCFI95:
	movl	8(%ebp), %ebx
	movl	12(%ebp), %eax
	addl	$24, %eax
	movl	%eax, 4(%esp)
	movl	%ebx, (%esp)
	call	_ZNSt15_Deque_iteratorI10LSP_PacketRKS0_PS1_EC1ERKS_IS0_RS0_PS0_E
	movl	%ebx, %eax
	addl	$20, %esp
	popl	%ebx
	popl	%ebp
	ret	$4
.LFE1962:
	.size	_ZNKSt5dequeI10LSP_PacketSaIS0_EE3endEv, .-_ZNKSt5dequeI10LSP_PacketSaIS0_EE3endEv
	.section	.text._ZNKSt5dequeI10LSP_PacketSaIS0_EE5beginEv,"axG",@progbits,_ZNKSt5dequeI10LSP_PacketSaIS0_EE5beginEv,comdat
	.align 2
	.weak	_ZNKSt5dequeI10LSP_PacketSaIS0_EE5beginEv
	.type	_ZNKSt5dequeI10LSP_PacketSaIS0_EE5beginEv, @function
_ZNKSt5dequeI10LSP_PacketSaIS0_EE5beginEv:
.LFB1961:
	pushl	%ebp
.LCFI96:
	movl	%esp, %ebp
.LCFI97:
	pushl	%ebx
.LCFI98:
	subl	$20, %esp
.LCFI99:
	movl	8(%ebp), %ebx
	movl	12(%ebp), %eax
	addl	$8, %eax
	movl	%eax, 4(%esp)
	movl	%ebx, (%esp)
	call	_ZNSt15_Deque_iteratorI10LSP_PacketRKS0_PS1_EC1ERKS_IS0_RS0_PS0_E
	movl	%ebx, %eax
	addl	$20, %esp
	popl	%ebx
	popl	%ebp
	ret	$4
.LFE1961:
	.size	_ZNKSt5dequeI10LSP_PacketSaIS0_EE5beginEv, .-_ZNKSt5dequeI10LSP_PacketSaIS0_EE5beginEv
	.section	.text._ZNSt12_Vector_baseIP8ConnInfoSaIS1_EE12_Vector_implC1ERKS2_,"axG",@progbits,_ZNSt12_Vector_baseIP8ConnInfoSaIS1_EE12_Vector_implC1ERKS2_,comdat
	.align 2
	.weak	_ZNSt12_Vector_baseIP8ConnInfoSaIS1_EE12_Vector_implC1ERKS2_
	.type	_ZNSt12_Vector_baseIP8ConnInfoSaIS1_EE12_Vector_implC1ERKS2_, @function
_ZNSt12_Vector_baseIP8ConnInfoSaIS1_EE12_Vector_implC1ERKS2_:
.LFB2011:
	pushl	%ebp
.LCFI100:
	movl	%esp, %ebp
.LCFI101:
	subl	$8, %esp
.LCFI102:
	movl	8(%ebp), %edx
	movl	12(%ebp), %eax
	movl	%eax, 4(%esp)
	movl	%edx, (%esp)
	call	_ZNSaIP8ConnInfoEC2ERKS1_
	movl	8(%ebp), %eax
	movl	$0, (%eax)
	movl	8(%ebp), %eax
	movl	$0, 4(%eax)
	movl	8(%ebp), %eax
	movl	$0, 8(%eax)
	leave
	ret
.LFE2011:
	.size	_ZNSt12_Vector_baseIP8ConnInfoSaIS1_EE12_Vector_implC1ERKS2_, .-_ZNSt12_Vector_baseIP8ConnInfoSaIS1_EE12_Vector_implC1ERKS2_
	.section	.text._ZNSt12_Vector_baseIP8ConnInfoSaIS1_EEC2ERKS2_,"axG",@progbits,_ZNSt12_Vector_baseIP8ConnInfoSaIS1_EEC2ERKS2_,comdat
	.align 2
	.weak	_ZNSt12_Vector_baseIP8ConnInfoSaIS1_EEC2ERKS2_
	.type	_ZNSt12_Vector_baseIP8ConnInfoSaIS1_EEC2ERKS2_, @function
_ZNSt12_Vector_baseIP8ConnInfoSaIS1_EEC2ERKS2_:
.LFB1977:
	pushl	%ebp
.LCFI103:
	movl	%esp, %ebp
.LCFI104:
	subl	$8, %esp
.LCFI105:
	movl	8(%ebp), %edx
	movl	12(%ebp), %eax
	movl	%eax, 4(%esp)
	movl	%edx, (%esp)
	call	_ZNSt12_Vector_baseIP8ConnInfoSaIS1_EE12_Vector_implC1ERKS2_
	leave
	ret
.LFE1977:
	.size	_ZNSt12_Vector_baseIP8ConnInfoSaIS1_EEC2ERKS2_, .-_ZNSt12_Vector_baseIP8ConnInfoSaIS1_EEC2ERKS2_
	.section	.text._ZNSt6vectorIP8ConnInfoSaIS1_EEC1ERKS2_,"axG",@progbits,_ZNSt6vectorIP8ConnInfoSaIS1_EEC1ERKS2_,comdat
	.align 2
	.weak	_ZNSt6vectorIP8ConnInfoSaIS1_EEC1ERKS2_
	.type	_ZNSt6vectorIP8ConnInfoSaIS1_EEC1ERKS2_, @function
_ZNSt6vectorIP8ConnInfoSaIS1_EEC1ERKS2_:
.LFB1912:
	pushl	%ebp
.LCFI106:
	movl	%esp, %ebp
.LCFI107:
	subl	$8, %esp
.LCFI108:
	movl	8(%ebp), %edx
	movl	12(%ebp), %eax
	movl	%eax, 4(%esp)
	movl	%edx, (%esp)
	call	_ZNSt12_Vector_baseIP8ConnInfoSaIS1_EEC2ERKS2_
	leave
	ret
.LFE1912:
	.size	_ZNSt6vectorIP8ConnInfoSaIS1_EEC1ERKS2_, .-_ZNSt6vectorIP8ConnInfoSaIS1_EEC1ERKS2_
	.section	.text._ZNK9__gnu_cxx17__normal_iteratorIPP8ConnInfoSt6vectorIS2_SaIS2_EEE4baseEv,"axG",@progbits,_ZNK9__gnu_cxx17__normal_iteratorIPP8ConnInfoSt6vectorIS2_SaIS2_EEE4baseEv,comdat
	.align 2
	.weak	_ZNK9__gnu_cxx17__normal_iteratorIPP8ConnInfoSt6vectorIS2_SaIS2_EEE4baseEv
	.type	_ZNK9__gnu_cxx17__normal_iteratorIPP8ConnInfoSt6vectorIS2_SaIS2_EEE4baseEv, @function
_ZNK9__gnu_cxx17__normal_iteratorIPP8ConnInfoSt6vectorIS2_SaIS2_EEE4baseEv:
.LFB2014:
	pushl	%ebp
.LCFI109:
	movl	%esp, %ebp
.LCFI110:
	movl	8(%ebp), %eax
	popl	%ebp
	ret
.LFE2014:
	.size	_ZNK9__gnu_cxx17__normal_iteratorIPP8ConnInfoSt6vectorIS2_SaIS2_EEE4baseEv, .-_ZNK9__gnu_cxx17__normal_iteratorIPP8ConnInfoSt6vectorIS2_SaIS2_EEE4baseEv
	.section	.text._ZNK9__gnu_cxx17__normal_iteratorIPP8ConnInfoSt6vectorIS2_SaIS2_EEEdeEv,"axG",@progbits,_ZNK9__gnu_cxx17__normal_iteratorIPP8ConnInfoSt6vectorIS2_SaIS2_EEEdeEv,comdat
	.align 2
	.weak	_ZNK9__gnu_cxx17__normal_iteratorIPP8ConnInfoSt6vectorIS2_SaIS2_EEEdeEv
	.type	_ZNK9__gnu_cxx17__normal_iteratorIPP8ConnInfoSt6vectorIS2_SaIS2_EEEdeEv, @function
_ZNK9__gnu_cxx17__normal_iteratorIPP8ConnInfoSt6vectorIS2_SaIS2_EEEdeEv:
.LFB2016:
	pushl	%ebp
.LCFI111:
	movl	%esp, %ebp
.LCFI112:
	movl	8(%ebp), %eax
	movl	(%eax), %eax
	popl	%ebp
	ret
.LFE2016:
	.size	_ZNK9__gnu_cxx17__normal_iteratorIPP8ConnInfoSt6vectorIS2_SaIS2_EEEdeEv, .-_ZNK9__gnu_cxx17__normal_iteratorIPP8ConnInfoSt6vectorIS2_SaIS2_EEEdeEv
	.section	.text._ZN9__gnu_cxx17__normal_iteratorIPP8ConnInfoSt6vectorIS2_SaIS2_EEEC1ERKS3_,"axG",@progbits,_ZN9__gnu_cxx17__normal_iteratorIPP8ConnInfoSt6vectorIS2_SaIS2_EEEC1ERKS3_,comdat
	.align 2
	.weak	_ZN9__gnu_cxx17__normal_iteratorIPP8ConnInfoSt6vectorIS2_SaIS2_EEEC1ERKS3_
	.type	_ZN9__gnu_cxx17__normal_iteratorIPP8ConnInfoSt6vectorIS2_SaIS2_EEEC1ERKS3_, @function
_ZN9__gnu_cxx17__normal_iteratorIPP8ConnInfoSt6vectorIS2_SaIS2_EEEC1ERKS3_:
.LFB2022:
	pushl	%ebp
.LCFI113:
	movl	%esp, %ebp
.LCFI114:
	movl	12(%ebp), %eax
	movl	(%eax), %edx
	movl	8(%ebp), %eax
	movl	%edx, (%eax)
	popl	%ebp
	ret
.LFE2022:
	.size	_ZN9__gnu_cxx17__normal_iteratorIPP8ConnInfoSt6vectorIS2_SaIS2_EEEC1ERKS3_, .-_ZN9__gnu_cxx17__normal_iteratorIPP8ConnInfoSt6vectorIS2_SaIS2_EEEC1ERKS3_
	.section	.text._ZNSt6vectorIP8ConnInfoSaIS1_EE3endEv,"axG",@progbits,_ZNSt6vectorIP8ConnInfoSaIS1_EE3endEv,comdat
	.align 2
	.weak	_ZNSt6vectorIP8ConnInfoSaIS1_EE3endEv
	.type	_ZNSt6vectorIP8ConnInfoSaIS1_EE3endEv, @function
_ZNSt6vectorIP8ConnInfoSaIS1_EE3endEv:
.LFB1995:
	pushl	%ebp
.LCFI115:
	movl	%esp, %ebp
.LCFI116:
	pushl	%ebx
.LCFI117:
	subl	$20, %esp
.LCFI118:
	movl	8(%ebp), %ebx
	movl	12(%ebp), %eax
	addl	$4, %eax
	movl	%eax, 4(%esp)
	movl	%ebx, (%esp)
	call	_ZN9__gnu_cxx17__normal_iteratorIPP8ConnInfoSt6vectorIS2_SaIS2_EEEC1ERKS3_
	movl	%ebx, %eax
	addl	$20, %esp
	popl	%ebx
	popl	%ebp
	ret	$4
.LFE1995:
	.size	_ZNSt6vectorIP8ConnInfoSaIS1_EE3endEv, .-_ZNSt6vectorIP8ConnInfoSaIS1_EE3endEv
	.section	.text._ZNSt15_Deque_iteratorI10LSP_PacketRS0_PS0_EC1Ev,"axG",@progbits,_ZNSt15_Deque_iteratorI10LSP_PacketRS0_PS0_EC1Ev,comdat
	.align 2
	.weak	_ZNSt15_Deque_iteratorI10LSP_PacketRS0_PS0_EC1Ev
	.type	_ZNSt15_Deque_iteratorI10LSP_PacketRS0_PS0_EC1Ev, @function
_ZNSt15_Deque_iteratorI10LSP_PacketRS0_PS0_EC1Ev:
.LFB2025:
	pushl	%ebp
.LCFI119:
	movl	%esp, %ebp
.LCFI120:
	movl	8(%ebp), %eax
	movl	$0, (%eax)
	movl	8(%ebp), %eax
	movl	$0, 4(%eax)
	movl	8(%ebp), %eax
	movl	$0, 8(%eax)
	movl	8(%ebp), %eax
	movl	$0, 12(%eax)
	popl	%ebp
	ret
.LFE2025:
	.size	_ZNSt15_Deque_iteratorI10LSP_PacketRS0_PS0_EC1Ev, .-_ZNSt15_Deque_iteratorI10LSP_PacketRS0_PS0_EC1Ev
	.section	.text._ZNSt11_Deque_baseI10LSP_PacketSaIS0_EE11_Deque_implC1ERKS1_,"axG",@progbits,_ZNSt11_Deque_baseI10LSP_PacketSaIS0_EE11_Deque_implC1ERKS1_,comdat
	.align 2
	.weak	_ZNSt11_Deque_baseI10LSP_PacketSaIS0_EE11_Deque_implC1ERKS1_
	.type	_ZNSt11_Deque_baseI10LSP_PacketSaIS0_EE11_Deque_implC1ERKS1_, @function
_ZNSt11_Deque_baseI10LSP_PacketSaIS0_EE11_Deque_implC1ERKS1_:
.LFB1999:
	pushl	%ebp
.LCFI121:
	movl	%esp, %ebp
.LCFI122:
	subl	$8, %esp
.LCFI123:
	movl	8(%ebp), %edx
	movl	12(%ebp), %eax
	movl	%eax, 4(%esp)
	movl	%edx, (%esp)
	call	_ZNSaI10LSP_PacketEC2ERKS0_
	movl	8(%ebp), %eax
	movl	$0, (%eax)
	movl	8(%ebp), %eax
	movl	$0, 4(%eax)
	movl	8(%ebp), %eax
	addl	$8, %eax
	movl	%eax, (%esp)
	call	_ZNSt15_Deque_iteratorI10LSP_PacketRS0_PS0_EC1Ev
	movl	8(%ebp), %eax
	addl	$24, %eax
	movl	%eax, (%esp)
	call	_ZNSt15_Deque_iteratorI10LSP_PacketRS0_PS0_EC1Ev
	leave
	ret
.LFE1999:
	.size	_ZNSt11_Deque_baseI10LSP_PacketSaIS0_EE11_Deque_implC1ERKS1_, .-_ZNSt11_Deque_baseI10LSP_PacketSaIS0_EE11_Deque_implC1ERKS1_
	.section	.text._ZSt3maxIjERKT_S2_S2_,"axG",@progbits,_ZSt3maxIjERKT_S2_S2_,comdat
	.align 2
	.weak	_ZSt3maxIjERKT_S2_S2_
	.type	_ZSt3maxIjERKT_S2_S2_, @function
_ZSt3maxIjERKT_S2_S2_:
.LFB2026:
	pushl	%ebp
.LCFI124:
	movl	%esp, %ebp
.LCFI125:
	subl	$4, %esp
.LCFI126:
	movl	8(%ebp), %eax
	movl	(%eax), %edx
	movl	12(%ebp), %eax
	movl	(%eax), %eax
	cmpl	%eax, %edx
	jae	.L121
	movl	12(%ebp), %eax
	movl	%eax, -4(%ebp)
	jmp	.L123
.L121:
	movl	8(%ebp), %eax
	movl	%eax, -4(%ebp)
.L123:
	movl	-4(%ebp), %eax
	leave
	ret
.LFE2026:
	.size	_ZSt3maxIjERKT_S2_S2_, .-_ZSt3maxIjERKT_S2_S2_
	.section	.text._ZNSt15_Deque_iteratorI10LSP_PacketRS0_PS0_E14_S_buffer_sizeEv,"axG",@progbits,_ZNSt15_Deque_iteratorI10LSP_PacketRS0_PS0_E14_S_buffer_sizeEv,comdat
	.align 2
	.weak	_ZNSt15_Deque_iteratorI10LSP_PacketRS0_PS0_E14_S_buffer_sizeEv
	.type	_ZNSt15_Deque_iteratorI10LSP_PacketRS0_PS0_E14_S_buffer_sizeEv, @function
_ZNSt15_Deque_iteratorI10LSP_PacketRS0_PS0_E14_S_buffer_sizeEv:
.LFB2037:
	pushl	%ebp
.LCFI127:
	movl	%esp, %ebp
.LCFI128:
	subl	$8, %esp
.LCFI129:
	movl	$16, (%esp)
	call	_ZSt16__deque_buf_sizej
	leave
	ret
.LFE2037:
	.size	_ZNSt15_Deque_iteratorI10LSP_PacketRS0_PS0_E14_S_buffer_sizeEv, .-_ZNSt15_Deque_iteratorI10LSP_PacketRS0_PS0_E14_S_buffer_sizeEv
	.section	.text._ZNSt15_Deque_iteratorI10LSP_PacketRS0_PS0_E11_M_set_nodeEPS2_,"axG",@progbits,_ZNSt15_Deque_iteratorI10LSP_PacketRS0_PS0_E11_M_set_nodeEPS2_,comdat
	.align 2
	.weak	_ZNSt15_Deque_iteratorI10LSP_PacketRS0_PS0_E11_M_set_nodeEPS2_
	.type	_ZNSt15_Deque_iteratorI10LSP_PacketRS0_PS0_E11_M_set_nodeEPS2_, @function
_ZNSt15_Deque_iteratorI10LSP_PacketRS0_PS0_E11_M_set_nodeEPS2_:
.LFB2029:
	pushl	%ebp
.LCFI130:
	movl	%esp, %ebp
.LCFI131:
	pushl	%ebx
.LCFI132:
	subl	$4, %esp
.LCFI133:
	movl	8(%ebp), %edx
	movl	12(%ebp), %eax
	movl	%eax, 12(%edx)
	movl	12(%ebp), %eax
	movl	(%eax), %edx
	movl	8(%ebp), %eax
	movl	%edx, 4(%eax)
	movl	8(%ebp), %eax
	movl	4(%eax), %ebx
	call	_ZNSt15_Deque_iteratorI10LSP_PacketRS0_PS0_E14_S_buffer_sizeEv
	sall	$4, %eax
	leal	(%ebx,%eax), %edx
	movl	8(%ebp), %eax
	movl	%edx, 8(%eax)
	addl	$4, %esp
	popl	%ebx
	popl	%ebp
	ret
.LFE2029:
	.size	_ZNSt15_Deque_iteratorI10LSP_PacketRS0_PS0_E11_M_set_nodeEPS2_, .-_ZNSt15_Deque_iteratorI10LSP_PacketRS0_PS0_E11_M_set_nodeEPS2_
	.section	.text._ZStmiI10LSP_PacketRS0_PS0_ENSt15_Deque_iteratorIT_T0_T1_E15difference_typeERKS7_SA_,"axG",@progbits,_ZStmiI10LSP_PacketRS0_PS0_ENSt15_Deque_iteratorIT_T0_T1_E15difference_typeERKS7_SA_,comdat
	.align 2
	.weak	_ZStmiI10LSP_PacketRS0_PS0_ENSt15_Deque_iteratorIT_T0_T1_E15difference_typeERKS7_SA_
	.type	_ZStmiI10LSP_PacketRS0_PS0_ENSt15_Deque_iteratorIT_T0_T1_E15difference_typeERKS7_SA_, @function
_ZStmiI10LSP_PacketRS0_PS0_ENSt15_Deque_iteratorIT_T0_T1_E15difference_typeERKS7_SA_:
.LFB2004:
	pushl	%ebp
.LCFI134:
	movl	%esp, %ebp
.LCFI135:
	pushl	%ebx
.LCFI136:
	subl	$4, %esp
.LCFI137:
	call	_ZNSt15_Deque_iteratorI10LSP_PacketRS0_PS0_E14_S_buffer_sizeEv
	movl	%eax, %ecx
	movl	8(%ebp), %eax
	movl	12(%eax), %eax
	movl	%eax, %edx
	movl	12(%ebp), %eax
	movl	12(%eax), %eax
	movl	%edx, %ebx
	subl	%eax, %ebx
	movl	%ebx, %eax
	sarl	$2, %eax
	subl	$1, %eax
	imull	%eax, %ecx
	movl	8(%ebp), %eax
	movl	(%eax), %eax
	movl	%eax, %edx
	movl	8(%ebp), %eax
	movl	4(%eax), %eax
	movl	%edx, %ebx
	subl	%eax, %ebx
	movl	%ebx, %eax
	sarl	$4, %eax
	addl	%eax, %ecx
	movl	12(%ebp), %eax
	movl	8(%eax), %eax
	movl	%eax, %edx
	movl	12(%ebp), %eax
	movl	(%eax), %eax
	movl	%edx, %ebx
	subl	%eax, %ebx
	movl	%ebx, %eax
	sarl	$4, %eax
	leal	(%ecx,%eax), %eax
	addl	$4, %esp
	popl	%ebx
	popl	%ebp
	ret
.LFE2004:
	.size	_ZStmiI10LSP_PacketRS0_PS0_ENSt15_Deque_iteratorIT_T0_T1_E15difference_typeERKS7_SA_, .-_ZStmiI10LSP_PacketRS0_PS0_ENSt15_Deque_iteratorIT_T0_T1_E15difference_typeERKS7_SA_
	.section	.text._ZNKSt5dequeI10LSP_PacketSaIS0_EE4sizeEv,"axG",@progbits,_ZNKSt5dequeI10LSP_PacketSaIS0_EE4sizeEv,comdat
	.align 2
	.weak	_ZNKSt5dequeI10LSP_PacketSaIS0_EE4sizeEv
	.type	_ZNKSt5dequeI10LSP_PacketSaIS0_EE4sizeEv, @function
_ZNKSt5dequeI10LSP_PacketSaIS0_EE4sizeEv:
.LFB1960:
	pushl	%ebp
.LCFI138:
	movl	%esp, %ebp
.LCFI139:
	subl	$8, %esp
.LCFI140:
	movl	8(%ebp), %eax
	addl	$8, %eax
	movl	8(%ebp), %edx
	addl	$24, %edx
	movl	%eax, 4(%esp)
	movl	%edx, (%esp)
	call	_ZStmiI10LSP_PacketRS0_PS0_ENSt15_Deque_iteratorIT_T0_T1_E15difference_typeERKS7_SA_
	leave
	ret
.LFE1960:
	.size	_ZNKSt5dequeI10LSP_PacketSaIS0_EE4sizeEv, .-_ZNKSt5dequeI10LSP_PacketSaIS0_EE4sizeEv
	.section	.text._ZNKSt5queueI10LSP_PacketSt5dequeIS0_SaIS0_EEE4sizeEv,"axG",@progbits,_ZNKSt5queueI10LSP_PacketSt5dequeIS0_SaIS0_EEE4sizeEv,comdat
	.align 2
	.weak	_ZNKSt5queueI10LSP_PacketSt5dequeIS0_SaIS0_EEE4sizeEv
	.type	_ZNKSt5queueI10LSP_PacketSt5dequeIS0_SaIS0_EEE4sizeEv, @function
_ZNKSt5queueI10LSP_PacketSt5dequeIS0_SaIS0_EEE4sizeEv:
.LFB1928:
	pushl	%ebp
.LCFI141:
	movl	%esp, %ebp
.LCFI142:
	subl	$8, %esp
.LCFI143:
	movl	8(%ebp), %eax
	movl	%eax, (%esp)
	call	_ZNKSt5dequeI10LSP_PacketSaIS0_EE4sizeEv
	leave
	ret
.LFE1928:
	.size	_ZNKSt5queueI10LSP_PacketSt5dequeIS0_SaIS0_EEE4sizeEv, .-_ZNKSt5queueI10LSP_PacketSt5dequeIS0_SaIS0_EEE4sizeEv
	.section	.text._ZSt13__destroy_auxIPP8ConnInfoEvT_S3_St11__true_type,"axG",@progbits,_ZSt13__destroy_auxIPP8ConnInfoEvT_S3_St11__true_type,comdat
	.align 2
	.weak	_ZSt13__destroy_auxIPP8ConnInfoEvT_S3_St11__true_type
	.type	_ZSt13__destroy_auxIPP8ConnInfoEvT_S3_St11__true_type, @function
_ZSt13__destroy_auxIPP8ConnInfoEvT_S3_St11__true_type:
.LFB2040:
	pushl	%ebp
.LCFI144:
	movl	%esp, %ebp
.LCFI145:
	popl	%ebp
	ret
.LFE2040:
	.size	_ZSt13__destroy_auxIPP8ConnInfoEvT_S3_St11__true_type, .-_ZSt13__destroy_auxIPP8ConnInfoEvT_S3_St11__true_type
	.section	.text._ZSt8_DestroyIPP8ConnInfoEvT_S3_,"axG",@progbits,_ZSt8_DestroyIPP8ConnInfoEvT_S3_,comdat
	.align 2
	.weak	_ZSt8_DestroyIPP8ConnInfoEvT_S3_
	.type	_ZSt8_DestroyIPP8ConnInfoEvT_S3_, @function
_ZSt8_DestroyIPP8ConnInfoEvT_S3_:
.LFB2013:
	pushl	%ebp
.LCFI146:
	movl	%esp, %ebp
.LCFI147:
	subl	$24, %esp
.LCFI148:
	movzbl	-1(%ebp), %eax
	movb	%al, 8(%esp)
	movl	12(%ebp), %eax
	movl	%eax, 4(%esp)
	movl	8(%ebp), %eax
	movl	%eax, (%esp)
	call	_ZSt13__destroy_auxIPP8ConnInfoEvT_S3_St11__true_type
	leave
	ret
.LFE2013:
	.size	_ZSt8_DestroyIPP8ConnInfoEvT_S3_, .-_ZSt8_DestroyIPP8ConnInfoEvT_S3_
	.section	.text._ZSt8_DestroyIPP8ConnInfoS1_EvT_S3_SaIT0_E,"axG",@progbits,_ZSt8_DestroyIPP8ConnInfoS1_EvT_S3_SaIT0_E,comdat
	.align 2
	.weak	_ZSt8_DestroyIPP8ConnInfoS1_EvT_S3_SaIT0_E
	.type	_ZSt8_DestroyIPP8ConnInfoS1_EvT_S3_SaIT0_E, @function
_ZSt8_DestroyIPP8ConnInfoS1_EvT_S3_SaIT0_E:
.LFB1983:
	pushl	%ebp
.LCFI149:
	movl	%esp, %ebp
.LCFI150:
	subl	$8, %esp
.LCFI151:
	movl	12(%ebp), %eax
	movl	%eax, 4(%esp)
	movl	8(%ebp), %eax
	movl	%eax, (%esp)
	call	_ZSt8_DestroyIPP8ConnInfoEvT_S3_
	leave
	ret
.LFE1983:
	.size	_ZSt8_DestroyIPP8ConnInfoS1_EvT_S3_SaIT0_E, .-_ZSt8_DestroyIPP8ConnInfoS1_EvT_S3_SaIT0_E
	.section	.text._ZNKSt12_Vector_baseIP8ConnInfoSaIS1_EE19_M_get_Tp_allocatorEv,"axG",@progbits,_ZNKSt12_Vector_baseIP8ConnInfoSaIS1_EE19_M_get_Tp_allocatorEv,comdat
	.align 2
	.weak	_ZNKSt12_Vector_baseIP8ConnInfoSaIS1_EE19_M_get_Tp_allocatorEv
	.type	_ZNKSt12_Vector_baseIP8ConnInfoSaIS1_EE19_M_get_Tp_allocatorEv, @function
_ZNKSt12_Vector_baseIP8ConnInfoSaIS1_EE19_M_get_Tp_allocatorEv:
.LFB2042:
	pushl	%ebp
.LCFI152:
	movl	%esp, %ebp
.LCFI153:
	movl	8(%ebp), %eax
	popl	%ebp
	ret
.LFE2042:
	.size	_ZNKSt12_Vector_baseIP8ConnInfoSaIS1_EE19_M_get_Tp_allocatorEv, .-_ZNKSt12_Vector_baseIP8ConnInfoSaIS1_EE19_M_get_Tp_allocatorEv
	.section	.text._ZNK9__gnu_cxx13new_allocatorIP8ConnInfoE8max_sizeEv,"axG",@progbits,_ZNK9__gnu_cxx13new_allocatorIP8ConnInfoE8max_sizeEv,comdat
	.align 2
	.weak	_ZNK9__gnu_cxx13new_allocatorIP8ConnInfoE8max_sizeEv
	.type	_ZNK9__gnu_cxx13new_allocatorIP8ConnInfoE8max_sizeEv, @function
_ZNK9__gnu_cxx13new_allocatorIP8ConnInfoE8max_sizeEv:
.LFB2043:
	pushl	%ebp
.LCFI154:
	movl	%esp, %ebp
.LCFI155:
	movl	$1073741823, %eax
	popl	%ebp
	ret
.LFE2043:
	.size	_ZNK9__gnu_cxx13new_allocatorIP8ConnInfoE8max_sizeEv, .-_ZNK9__gnu_cxx13new_allocatorIP8ConnInfoE8max_sizeEv
	.section	.text._ZNKSt6vectorIP8ConnInfoSaIS1_EE8max_sizeEv,"axG",@progbits,_ZNKSt6vectorIP8ConnInfoSaIS1_EE8max_sizeEv,comdat
	.align 2
	.weak	_ZNKSt6vectorIP8ConnInfoSaIS1_EE8max_sizeEv
	.type	_ZNKSt6vectorIP8ConnInfoSaIS1_EE8max_sizeEv, @function
_ZNKSt6vectorIP8ConnInfoSaIS1_EE8max_sizeEv:
.LFB2017:
	pushl	%ebp
.LCFI156:
	movl	%esp, %ebp
.LCFI157:
	subl	$8, %esp
.LCFI158:
	movl	8(%ebp), %eax
	movl	%eax, (%esp)
	call	_ZNKSt12_Vector_baseIP8ConnInfoSaIS1_EE19_M_get_Tp_allocatorEv
	movl	%eax, (%esp)
	call	_ZNK9__gnu_cxx13new_allocatorIP8ConnInfoE8max_sizeEv
	leave
	ret
.LFE2017:
	.size	_ZNKSt6vectorIP8ConnInfoSaIS1_EE8max_sizeEv, .-_ZNKSt6vectorIP8ConnInfoSaIS1_EE8max_sizeEv
	.section	.text._ZN9__gnu_cxx13new_allocatorIP10LSP_PacketED2Ev,"axG",@progbits,_ZN9__gnu_cxx13new_allocatorIP10LSP_PacketED2Ev,comdat
	.align 2
	.weak	_ZN9__gnu_cxx13new_allocatorIP10LSP_PacketED2Ev
	.type	_ZN9__gnu_cxx13new_allocatorIP10LSP_PacketED2Ev, @function
_ZN9__gnu_cxx13new_allocatorIP10LSP_PacketED2Ev:
.LFB2056:
	pushl	%ebp
.LCFI159:
	movl	%esp, %ebp
.LCFI160:
	popl	%ebp
	ret
.LFE2056:
	.size	_ZN9__gnu_cxx13new_allocatorIP10LSP_PacketED2Ev, .-_ZN9__gnu_cxx13new_allocatorIP10LSP_PacketED2Ev
	.section	.text._ZNSaIP10LSP_PacketED1Ev,"axG",@progbits,_ZNSaIP10LSP_PacketED1Ev,comdat
	.align 2
	.weak	_ZNSaIP10LSP_PacketED1Ev
	.type	_ZNSaIP10LSP_PacketED1Ev, @function
_ZNSaIP10LSP_PacketED1Ev:
.LFB2034:
	pushl	%ebp
.LCFI161:
	movl	%esp, %ebp
.LCFI162:
	subl	$8, %esp
.LCFI163:
	movl	8(%ebp), %eax
	movl	%eax, (%esp)
	call	_ZN9__gnu_cxx13new_allocatorIP10LSP_PacketED2Ev
	leave
	ret
.LFE2034:
	.size	_ZNSaIP10LSP_PacketED1Ev, .-_ZNSaIP10LSP_PacketED1Ev
	.section	.text._ZNSt5dequeI10LSP_PacketSaIS0_EE14_S_buffer_sizeEv,"axG",@progbits,_ZNSt5dequeI10LSP_PacketSaIS0_EE14_S_buffer_sizeEv,comdat
	.align 2
	.weak	_ZNSt5dequeI10LSP_PacketSaIS0_EE14_S_buffer_sizeEv
	.type	_ZNSt5dequeI10LSP_PacketSaIS0_EE14_S_buffer_sizeEv, @function
_ZNSt5dequeI10LSP_PacketSaIS0_EE14_S_buffer_sizeEv:
.LFB2058:
	pushl	%ebp
.LCFI164:
	movl	%esp, %ebp
.LCFI165:
	subl	$8, %esp
.LCFI166:
	movl	$16, (%esp)
	call	_ZSt16__deque_buf_sizej
	leave
	ret
.LFE2058:
	.size	_ZNSt5dequeI10LSP_PacketSaIS0_EE14_S_buffer_sizeEv, .-_ZNSt5dequeI10LSP_PacketSaIS0_EE14_S_buffer_sizeEv
	.section	.text._ZNSt15_Deque_iteratorI10LSP_PacketRS0_PS0_EppEv,"axG",@progbits,_ZNSt15_Deque_iteratorI10LSP_PacketRS0_PS0_EppEv,comdat
	.align 2
	.weak	_ZNSt15_Deque_iteratorI10LSP_PacketRS0_PS0_EppEv
	.type	_ZNSt15_Deque_iteratorI10LSP_PacketRS0_PS0_EppEv, @function
_ZNSt15_Deque_iteratorI10LSP_PacketRS0_PS0_EppEv:
.LFB2061:
	pushl	%ebp
.LCFI167:
	movl	%esp, %ebp
.LCFI168:
	subl	$8, %esp
.LCFI169:
	movl	8(%ebp), %eax
	movl	(%eax), %eax
	leal	16(%eax), %edx
	movl	8(%ebp), %eax
	movl	%edx, (%eax)
	movl	8(%ebp), %eax
	movl	(%eax), %edx
	movl	8(%ebp), %eax
	movl	8(%eax), %eax
	cmpl	%eax, %edx
	jne	.L156
	movl	8(%ebp), %eax
	movl	12(%eax), %eax
	addl	$4, %eax
	movl	%eax, 4(%esp)
	movl	8(%ebp), %eax
	movl	%eax, (%esp)
	call	_ZNSt15_Deque_iteratorI10LSP_PacketRS0_PS0_E11_M_set_nodeEPS2_
	movl	8(%ebp), %eax
	movl	4(%eax), %edx
	movl	8(%ebp), %eax
	movl	%edx, (%eax)
.L156:
	movl	8(%ebp), %eax
	leave
	ret
.LFE2061:
	.size	_ZNSt15_Deque_iteratorI10LSP_PacketRS0_PS0_EppEv, .-_ZNSt15_Deque_iteratorI10LSP_PacketRS0_PS0_EppEv
	.section	.text._ZNKSt15_Deque_iteratorI10LSP_PacketRS0_PS0_EdeEv,"axG",@progbits,_ZNKSt15_Deque_iteratorI10LSP_PacketRS0_PS0_EdeEv,comdat
	.align 2
	.weak	_ZNKSt15_Deque_iteratorI10LSP_PacketRS0_PS0_EdeEv
	.type	_ZNKSt15_Deque_iteratorI10LSP_PacketRS0_PS0_EdeEv, @function
_ZNKSt15_Deque_iteratorI10LSP_PacketRS0_PS0_EdeEv:
.LFB2063:
	pushl	%ebp
.LCFI170:
	movl	%esp, %ebp
.LCFI171:
	movl	8(%ebp), %eax
	movl	(%eax), %eax
	popl	%ebp
	ret
.LFE2063:
	.size	_ZNKSt15_Deque_iteratorI10LSP_PacketRS0_PS0_EdeEv, .-_ZNKSt15_Deque_iteratorI10LSP_PacketRS0_PS0_EdeEv
	.section	.text._ZNKSt15_Deque_iteratorI10LSP_PacketRKS0_PS1_EdeEv,"axG",@progbits,_ZNKSt15_Deque_iteratorI10LSP_PacketRKS0_PS1_EdeEv,comdat
	.align 2
	.weak	_ZNKSt15_Deque_iteratorI10LSP_PacketRKS0_PS1_EdeEv
	.type	_ZNKSt15_Deque_iteratorI10LSP_PacketRKS0_PS1_EdeEv, @function
_ZNKSt15_Deque_iteratorI10LSP_PacketRKS0_PS1_EdeEv:
.LFB2064:
	pushl	%ebp
.LCFI172:
	movl	%esp, %ebp
.LCFI173:
	movl	8(%ebp), %eax
	movl	(%eax), %eax
	popl	%ebp
	ret
.LFE2064:
	.size	_ZNKSt15_Deque_iteratorI10LSP_PacketRKS0_PS1_EdeEv, .-_ZNKSt15_Deque_iteratorI10LSP_PacketRKS0_PS1_EdeEv
	.section	.text._ZNK9__gnu_cxx13new_allocatorIP10LSP_PacketE8max_sizeEv,"axG",@progbits,_ZNK9__gnu_cxx13new_allocatorIP10LSP_PacketE8max_sizeEv,comdat
	.align 2
	.weak	_ZNK9__gnu_cxx13new_allocatorIP10LSP_PacketE8max_sizeEv
	.type	_ZNK9__gnu_cxx13new_allocatorIP10LSP_PacketE8max_sizeEv, @function
_ZNK9__gnu_cxx13new_allocatorIP10LSP_PacketE8max_sizeEv:
.LFB2069:
	pushl	%ebp
.LCFI174:
	movl	%esp, %ebp
.LCFI175:
	movl	$1073741823, %eax
	popl	%ebp
	ret
.LFE2069:
	.size	_ZNK9__gnu_cxx13new_allocatorIP10LSP_PacketE8max_sizeEv, .-_ZNK9__gnu_cxx13new_allocatorIP10LSP_PacketE8max_sizeEv
	.section	.text._ZN9__gnu_cxx13new_allocatorIP10LSP_PacketEC2Ev,"axG",@progbits,_ZN9__gnu_cxx13new_allocatorIP10LSP_PacketEC2Ev,comdat
	.align 2
	.weak	_ZN9__gnu_cxx13new_allocatorIP10LSP_PacketEC2Ev
	.type	_ZN9__gnu_cxx13new_allocatorIP10LSP_PacketEC2Ev, @function
_ZN9__gnu_cxx13new_allocatorIP10LSP_PacketEC2Ev:
.LFB2072:
	pushl	%ebp
.LCFI176:
	movl	%esp, %ebp
.LCFI177:
	popl	%ebp
	ret
.LFE2072:
	.size	_ZN9__gnu_cxx13new_allocatorIP10LSP_PacketEC2Ev, .-_ZN9__gnu_cxx13new_allocatorIP10LSP_PacketEC2Ev
	.section	.text._ZNSaIP10LSP_PacketEC1IS_EERKSaIT_E,"axG",@progbits,_ZNSaIP10LSP_PacketEC1IS_EERKSaIT_E,comdat
	.align 2
	.weak	_ZNSaIP10LSP_PacketEC1IS_EERKSaIT_E
	.type	_ZNSaIP10LSP_PacketEC1IS_EERKSaIT_E, @function
_ZNSaIP10LSP_PacketEC1IS_EERKSaIT_E:
.LFB2051:
	pushl	%ebp
.LCFI178:
	movl	%esp, %ebp
.LCFI179:
	subl	$8, %esp
.LCFI180:
	movl	8(%ebp), %eax
	movl	%eax, (%esp)
	call	_ZN9__gnu_cxx13new_allocatorIP10LSP_PacketEC2Ev
	leave
	ret
.LFE2051:
	.size	_ZNSaIP10LSP_PacketEC1IS_EERKSaIT_E, .-_ZNSaIP10LSP_PacketEC1IS_EERKSaIT_E
	.section	.text._ZNKSt11_Deque_baseI10LSP_PacketSaIS0_EE20_M_get_map_allocatorEv,"axG",@progbits,_ZNKSt11_Deque_baseI10LSP_PacketSaIS0_EE20_M_get_map_allocatorEv,comdat
	.align 2
	.weak	_ZNKSt11_Deque_baseI10LSP_PacketSaIS0_EE20_M_get_map_allocatorEv
	.type	_ZNKSt11_Deque_baseI10LSP_PacketSaIS0_EE20_M_get_map_allocatorEv, @function
_ZNKSt11_Deque_baseI10LSP_PacketSaIS0_EE20_M_get_map_allocatorEv:
.LFB2031:
	pushl	%ebp
.LCFI181:
	movl	%esp, %ebp
.LCFI182:
	pushl	%esi
.LCFI183:
	pushl	%ebx
.LCFI184:
	subl	$16, %esp
.LCFI185:
	movl	8(%ebp), %ebx
	movl	%ebx, %esi
	movl	12(%ebp), %eax
	movl	%eax, (%esp)
	call	_ZNKSt11_Deque_baseI10LSP_PacketSaIS0_EE19_M_get_Tp_allocatorEv
	movl	%eax, 4(%esp)
	movl	%esi, (%esp)
	call	_ZNSaIP10LSP_PacketEC1IS_EERKSaIT_E
	movl	%ebx, %eax
	addl	$16, %esp
	popl	%ebx
	popl	%esi
	popl	%ebp
	ret	$4
.LFE2031:
	.size	_ZNKSt11_Deque_baseI10LSP_PacketSaIS0_EE20_M_get_map_allocatorEv, .-_ZNKSt11_Deque_baseI10LSP_PacketSaIS0_EE20_M_get_map_allocatorEv
	.section	.text._ZSteqI10LSP_PacketRKS0_PS1_EbRKSt15_Deque_iteratorIT_T0_T1_ESA_,"axG",@progbits,_ZSteqI10LSP_PacketRKS0_PS1_EbRKSt15_Deque_iteratorIT_T0_T1_ESA_,comdat
	.align 2
	.weak	_ZSteqI10LSP_PacketRKS0_PS1_EbRKSt15_Deque_iteratorIT_T0_T1_ESA_
	.type	_ZSteqI10LSP_PacketRKS0_PS1_EbRKSt15_Deque_iteratorIT_T0_T1_ESA_, @function
_ZSteqI10LSP_PacketRKS0_PS1_EbRKSt15_Deque_iteratorIT_T0_T1_ESA_:
.LFB2078:
	pushl	%ebp
.LCFI186:
	movl	%esp, %ebp
.LCFI187:
	movl	8(%ebp), %eax
	movl	(%eax), %edx
	movl	12(%ebp), %eax
	movl	(%eax), %eax
	cmpl	%eax, %edx
	sete	%al
	movzbl	%al, %eax
	popl	%ebp
	ret
.LFE2078:
	.size	_ZSteqI10LSP_PacketRKS0_PS1_EbRKSt15_Deque_iteratorIT_T0_T1_ESA_, .-_ZSteqI10LSP_PacketRKS0_PS1_EbRKSt15_Deque_iteratorIT_T0_T1_ESA_
	.section	.text._ZStneI10LSP_PacketRKS0_PS1_EbRKSt15_Deque_iteratorIT_T0_T1_ESA_,"axG",@progbits,_ZStneI10LSP_PacketRKS0_PS1_EbRKSt15_Deque_iteratorIT_T0_T1_ESA_,comdat
	.align 2
	.weak	_ZStneI10LSP_PacketRKS0_PS1_EbRKSt15_Deque_iteratorIT_T0_T1_ESA_
	.type	_ZStneI10LSP_PacketRKS0_PS1_EbRKSt15_Deque_iteratorIT_T0_T1_ESA_, @function
_ZStneI10LSP_PacketRKS0_PS1_EbRKSt15_Deque_iteratorIT_T0_T1_ESA_:
.LFB2060:
	pushl	%ebp
.LCFI188:
	movl	%esp, %ebp
.LCFI189:
	subl	$8, %esp
.LCFI190:
	movl	12(%ebp), %eax
	movl	%eax, 4(%esp)
	movl	8(%ebp), %eax
	movl	%eax, (%esp)
	call	_ZSteqI10LSP_PacketRKS0_PS1_EbRKSt15_Deque_iteratorIT_T0_T1_ESA_
	xorl	$1, %eax
	movzbl	%al, %eax
	leave
	ret
.LFE2060:
	.size	_ZStneI10LSP_PacketRKS0_PS1_EbRKSt15_Deque_iteratorIT_T0_T1_ESA_, .-_ZStneI10LSP_PacketRKS0_PS1_EbRKSt15_Deque_iteratorIT_T0_T1_ESA_
	.section	.text._ZNK9__gnu_cxx13new_allocatorI10LSP_PacketE8max_sizeEv,"axG",@progbits,_ZNK9__gnu_cxx13new_allocatorI10LSP_PacketE8max_sizeEv,comdat
	.align 2
	.weak	_ZNK9__gnu_cxx13new_allocatorI10LSP_PacketE8max_sizeEv
	.type	_ZNK9__gnu_cxx13new_allocatorI10LSP_PacketE8max_sizeEv, @function
_ZNK9__gnu_cxx13new_allocatorI10LSP_PacketE8max_sizeEv:
.LFB2083:
	pushl	%ebp
.LCFI191:
	movl	%esp, %ebp
.LCFI192:
	movl	$268435455, %eax
	popl	%ebp
	ret
.LFE2083:
	.size	_ZNK9__gnu_cxx13new_allocatorI10LSP_PacketE8max_sizeEv, .-_ZNK9__gnu_cxx13new_allocatorI10LSP_PacketE8max_sizeEv
	.section	.text._ZNSt15_Deque_iteratorI10LSP_PacketRKS0_PS1_E14_S_buffer_sizeEv,"axG",@progbits,_ZNSt15_Deque_iteratorI10LSP_PacketRKS0_PS1_E14_S_buffer_sizeEv,comdat
	.align 2
	.weak	_ZNSt15_Deque_iteratorI10LSP_PacketRKS0_PS1_E14_S_buffer_sizeEv
	.type	_ZNSt15_Deque_iteratorI10LSP_PacketRKS0_PS1_E14_S_buffer_sizeEv, @function
_ZNSt15_Deque_iteratorI10LSP_PacketRKS0_PS1_E14_S_buffer_sizeEv:
.LFB2085:
	pushl	%ebp
.LCFI193:
	movl	%esp, %ebp
.LCFI194:
	subl	$8, %esp
.LCFI195:
	movl	$16, (%esp)
	call	_ZSt16__deque_buf_sizej
	leave
	ret
.LFE2085:
	.size	_ZNSt15_Deque_iteratorI10LSP_PacketRKS0_PS1_E14_S_buffer_sizeEv, .-_ZNSt15_Deque_iteratorI10LSP_PacketRKS0_PS1_E14_S_buffer_sizeEv
	.section	.text._ZNSt15_Deque_iteratorI10LSP_PacketRKS0_PS1_E11_M_set_nodeEPPS0_,"axG",@progbits,_ZNSt15_Deque_iteratorI10LSP_PacketRKS0_PS1_E11_M_set_nodeEPPS0_,comdat
	.align 2
	.weak	_ZNSt15_Deque_iteratorI10LSP_PacketRKS0_PS1_E11_M_set_nodeEPPS0_
	.type	_ZNSt15_Deque_iteratorI10LSP_PacketRKS0_PS1_E11_M_set_nodeEPPS0_, @function
_ZNSt15_Deque_iteratorI10LSP_PacketRKS0_PS1_E11_M_set_nodeEPPS0_:
.LFB2079:
	pushl	%ebp
.LCFI196:
	movl	%esp, %ebp
.LCFI197:
	pushl	%ebx
.LCFI198:
	subl	$4, %esp
.LCFI199:
	movl	8(%ebp), %edx
	movl	12(%ebp), %eax
	movl	%eax, 12(%edx)
	movl	12(%ebp), %eax
	movl	(%eax), %edx
	movl	8(%ebp), %eax
	movl	%edx, 4(%eax)
	movl	8(%ebp), %eax
	movl	4(%eax), %ebx
	call	_ZNSt15_Deque_iteratorI10LSP_PacketRKS0_PS1_E14_S_buffer_sizeEv
	sall	$4, %eax
	leal	(%ebx,%eax), %edx
	movl	8(%ebp), %eax
	movl	%edx, 8(%eax)
	addl	$4, %esp
	popl	%ebx
	popl	%ebp
	ret
.LFE2079:
	.size	_ZNSt15_Deque_iteratorI10LSP_PacketRKS0_PS1_E11_M_set_nodeEPPS0_, .-_ZNSt15_Deque_iteratorI10LSP_PacketRKS0_PS1_E11_M_set_nodeEPPS0_
	.section	.text._ZNSt15_Deque_iteratorI10LSP_PacketRKS0_PS1_EppEv,"axG",@progbits,_ZNSt15_Deque_iteratorI10LSP_PacketRKS0_PS1_EppEv,comdat
	.align 2
	.weak	_ZNSt15_Deque_iteratorI10LSP_PacketRKS0_PS1_EppEv
	.type	_ZNSt15_Deque_iteratorI10LSP_PacketRKS0_PS1_EppEv, @function
_ZNSt15_Deque_iteratorI10LSP_PacketRKS0_PS1_EppEv:
.LFB2062:
	pushl	%ebp
.LCFI200:
	movl	%esp, %ebp
.LCFI201:
	subl	$8, %esp
.LCFI202:
	movl	8(%ebp), %eax
	movl	(%eax), %eax
	leal	16(%eax), %edx
	movl	8(%ebp), %eax
	movl	%edx, (%eax)
	movl	8(%ebp), %eax
	movl	(%eax), %edx
	movl	8(%ebp), %eax
	movl	8(%eax), %eax
	cmpl	%eax, %edx
	jne	.L182
	movl	8(%ebp), %eax
	movl	12(%eax), %eax
	addl	$4, %eax
	movl	%eax, 4(%esp)
	movl	8(%ebp), %eax
	movl	%eax, (%esp)
	call	_ZNSt15_Deque_iteratorI10LSP_PacketRKS0_PS1_E11_M_set_nodeEPPS0_
	movl	8(%ebp), %eax
	movl	4(%eax), %edx
	movl	8(%ebp), %eax
	movl	%edx, (%eax)
.L182:
	movl	8(%ebp), %eax
	leave
	ret
.LFE2062:
	.size	_ZNSt15_Deque_iteratorI10LSP_PacketRKS0_PS1_EppEv, .-_ZNSt15_Deque_iteratorI10LSP_PacketRKS0_PS1_EppEv
	.section	.text._ZSteqI10LSP_PacketRS0_PS0_EbRKSt15_Deque_iteratorIT_T0_T1_ES9_,"axG",@progbits,_ZSteqI10LSP_PacketRS0_PS0_EbRKSt15_Deque_iteratorIT_T0_T1_ES9_,comdat
	.align 2
	.weak	_ZSteqI10LSP_PacketRS0_PS0_EbRKSt15_Deque_iteratorIT_T0_T1_ES9_
	.type	_ZSteqI10LSP_PacketRS0_PS0_EbRKSt15_Deque_iteratorIT_T0_T1_ES9_, @function
_ZSteqI10LSP_PacketRS0_PS0_EbRKSt15_Deque_iteratorIT_T0_T1_ES9_:
.LFB2089:
	pushl	%ebp
.LCFI203:
	movl	%esp, %ebp
.LCFI204:
	movl	8(%ebp), %eax
	movl	(%eax), %edx
	movl	12(%ebp), %eax
	movl	(%eax), %eax
	cmpl	%eax, %edx
	sete	%al
	movzbl	%al, %eax
	popl	%ebp
	ret
.LFE2089:
	.size	_ZSteqI10LSP_PacketRS0_PS0_EbRKSt15_Deque_iteratorIT_T0_T1_ES9_, .-_ZSteqI10LSP_PacketRS0_PS0_EbRKSt15_Deque_iteratorIT_T0_T1_ES9_
	.section	.text._ZStneI10LSP_PacketRS0_PS0_EbRKSt15_Deque_iteratorIT_T0_T1_ES9_,"axG",@progbits,_ZStneI10LSP_PacketRS0_PS0_EbRKSt15_Deque_iteratorIT_T0_T1_ES9_,comdat
	.align 2
	.weak	_ZStneI10LSP_PacketRS0_PS0_EbRKSt15_Deque_iteratorIT_T0_T1_ES9_
	.type	_ZStneI10LSP_PacketRS0_PS0_EbRKSt15_Deque_iteratorIT_T0_T1_ES9_, @function
_ZStneI10LSP_PacketRS0_PS0_EbRKSt15_Deque_iteratorIT_T0_T1_ES9_:
.LFB2086:
	pushl	%ebp
.LCFI205:
	movl	%esp, %ebp
.LCFI206:
	subl	$8, %esp
.LCFI207:
	movl	12(%ebp), %eax
	movl	%eax, 4(%esp)
	movl	8(%ebp), %eax
	movl	%eax, (%esp)
	call	_ZSteqI10LSP_PacketRS0_PS0_EbRKSt15_Deque_iteratorIT_T0_T1_ES9_
	xorl	$1, %eax
	movzbl	%al, %eax
	leave
	ret
.LFE2086:
	.size	_ZStneI10LSP_PacketRS0_PS0_EbRKSt15_Deque_iteratorIT_T0_T1_ES9_, .-_ZStneI10LSP_PacketRS0_PS0_EbRKSt15_Deque_iteratorIT_T0_T1_ES9_
	.text
	.align 2
	.type	_Z41__static_initialization_and_destruction_0ii, @function
_Z41__static_initialization_and_destruction_0ii:
.LFB2092:
	pushl	%ebp
.LCFI208:
	movl	%esp, %ebp
.LCFI209:
	subl	$24, %esp
.LCFI210:
	cmpl	$1, 8(%ebp)
	jne	.L193
	cmpl	$65535, 12(%ebp)
	jne	.L193
	movl	$_ZSt8__ioinit, (%esp)
	call	_ZNSt8ios_base4InitC1Ev
	movl	$__dso_handle, 8(%esp)
	movl	$0, 4(%esp)
	movl	$__tcf_0, (%esp)
	call	__cxa_atexit
.L193:
	leave
	ret
.LFE2092:
	.size	_Z41__static_initialization_and_destruction_0ii, .-_Z41__static_initialization_and_destruction_0ii
	.align 2
	.type	_GLOBAL__I__Z7connectv, @function
_GLOBAL__I__Z7connectv:
.LFB2094:
	pushl	%ebp
.LCFI211:
	movl	%esp, %ebp
.LCFI212:
	subl	$8, %esp
.LCFI213:
	movl	$65535, 4(%esp)
	movl	$1, (%esp)
	call	_Z41__static_initialization_and_destruction_0ii
	leave
	ret
.LFE2094:
	.size	_GLOBAL__I__Z7connectv, .-_GLOBAL__I__Z7connectv
	.align 2
	.type	__tcf_0, @function
__tcf_0:
.LFB2093:
	pushl	%ebp
.LCFI214:
	movl	%esp, %ebp
.LCFI215:
	subl	$8, %esp
.LCFI216:
	movl	$_ZSt8__ioinit, (%esp)
	call	_ZNSt8ios_base4InitD1Ev
	leave
	ret
.LFE2093:
	.size	__tcf_0, .-__tcf_0
	.section	.text._ZN9__gnu_cxx13new_allocatorIP10LSP_PacketE8allocateEjPKv,"axG",@progbits,_ZN9__gnu_cxx13new_allocatorIP10LSP_PacketE8allocateEjPKv,comdat
	.align 2
	.weak	_ZN9__gnu_cxx13new_allocatorIP10LSP_PacketE8allocateEjPKv
	.type	_ZN9__gnu_cxx13new_allocatorIP10LSP_PacketE8allocateEjPKv, @function
_ZN9__gnu_cxx13new_allocatorIP10LSP_PacketE8allocateEjPKv:
.LFB2046:
	pushl	%ebp
.LCFI217:
	movl	%esp, %ebp
.LCFI218:
	subl	$8, %esp
.LCFI219:
	movl	8(%ebp), %eax
	movl	%eax, (%esp)
	call	_ZNK9__gnu_cxx13new_allocatorIP10LSP_PacketE8max_sizeEv
	cmpl	12(%ebp), %eax
	setb	%al
	movzbl	%al, %eax
	testl	%eax, %eax
	setne	%al
	testb	%al, %al
	je	.L199
	call	_ZSt17__throw_bad_allocv
.L199:
	movl	12(%ebp), %eax
	sall	$2, %eax
	movl	%eax, (%esp)
	call	_Znwj
	leave
	ret
.LFE2046:
	.size	_ZN9__gnu_cxx13new_allocatorIP10LSP_PacketE8allocateEjPKv, .-_ZN9__gnu_cxx13new_allocatorIP10LSP_PacketE8allocateEjPKv
.globl _Unwind_Resume
	.section	.text._ZNSt11_Deque_baseI10LSP_PacketSaIS0_EE15_M_allocate_mapEj,"axG",@progbits,_ZNSt11_Deque_baseI10LSP_PacketSaIS0_EE15_M_allocate_mapEj,comdat
	.align 2
	.weak	_ZNSt11_Deque_baseI10LSP_PacketSaIS0_EE15_M_allocate_mapEj
	.type	_ZNSt11_Deque_baseI10LSP_PacketSaIS0_EE15_M_allocate_mapEj, @function
_ZNSt11_Deque_baseI10LSP_PacketSaIS0_EE15_M_allocate_mapEj:
.LFB2027:
	pushl	%ebp
.LCFI220:
	movl	%esp, %ebp
.LCFI221:
	pushl	%ebx
.LCFI222:
	subl	$52, %esp
.LCFI223:
	leal	-5(%ebp), %edx
	movl	8(%ebp), %eax
	movl	%eax, 4(%esp)
	movl	%edx, (%esp)
	call	_ZNKSt11_Deque_baseI10LSP_PacketSaIS0_EE20_M_get_map_allocatorEv
	subl	$4, %esp
	leal	-5(%ebp), %edx
	movl	$0, 8(%esp)
	movl	12(%ebp), %eax
	movl	%eax, 4(%esp)
	movl	%edx, (%esp)
.LEHB0:
	call	_ZN9__gnu_cxx13new_allocatorIP10LSP_PacketE8allocateEjPKv
.LEHE0:
	movl	%eax, %ebx
	leal	-5(%ebp), %eax
	movl	%eax, (%esp)
	call	_ZNSaIP10LSP_PacketED1Ev
	movl	%ebx, -24(%ebp)
	jmp	.L202
.L205:
	movl	%eax, -28(%ebp)
.L203:
	movl	-28(%ebp), %ebx
	leal	-5(%ebp), %eax
	movl	%eax, (%esp)
	call	_ZNSaIP10LSP_PacketED1Ev
	movl	%ebx, -28(%ebp)
	movl	-28(%ebp), %eax
	movl	%eax, (%esp)
.LEHB1:
	call	_Unwind_Resume
.LEHE1:
.L202:
	movl	-24(%ebp), %eax
	movl	-4(%ebp), %ebx
	leave
	ret
.LFE2027:
	.size	_ZNSt11_Deque_baseI10LSP_PacketSaIS0_EE15_M_allocate_mapEj, .-_ZNSt11_Deque_baseI10LSP_PacketSaIS0_EE15_M_allocate_mapEj
	.section	.gcc_except_table,"a",@progbits
.LLSDA2027:
	.byte	0xff
	.byte	0xff
	.byte	0x1
	.uleb128 .LLSDACSE2027-.LLSDACSB2027
.LLSDACSB2027:
	.uleb128 .LEHB0-.LFB2027
	.uleb128 .LEHE0-.LEHB0
	.uleb128 .L205-.LFB2027
	.uleb128 0x0
	.uleb128 .LEHB1-.LFB2027
	.uleb128 .LEHE1-.LEHB1
	.uleb128 0x0
	.uleb128 0x0
.LLSDACSE2027:
	.section	.text._ZNSt11_Deque_baseI10LSP_PacketSaIS0_EE15_M_allocate_mapEj,"axG",@progbits,_ZNSt11_Deque_baseI10LSP_PacketSaIS0_EE15_M_allocate_mapEj,comdat
	.section	.text._ZN9__gnu_cxx13new_allocatorI10LSP_PacketE8allocateEjPKv,"axG",@progbits,_ZN9__gnu_cxx13new_allocatorI10LSP_PacketE8allocateEjPKv,comdat
	.align 2
	.weak	_ZN9__gnu_cxx13new_allocatorI10LSP_PacketE8allocateEjPKv
	.type	_ZN9__gnu_cxx13new_allocatorI10LSP_PacketE8allocateEjPKv, @function
_ZN9__gnu_cxx13new_allocatorI10LSP_PacketE8allocateEjPKv:
.LFB2070:
	pushl	%ebp
.LCFI224:
	movl	%esp, %ebp
.LCFI225:
	subl	$8, %esp
.LCFI226:
	movl	8(%ebp), %eax
	movl	%eax, (%esp)
	call	_ZNK9__gnu_cxx13new_allocatorI10LSP_PacketE8max_sizeEv
	cmpl	12(%ebp), %eax
	setb	%al
	movzbl	%al, %eax
	testl	%eax, %eax
	setne	%al
	testb	%al, %al
	je	.L207
	call	_ZSt17__throw_bad_allocv
.L207:
	movl	12(%ebp), %eax
	sall	$4, %eax
	movl	%eax, (%esp)
	call	_Znwj
	leave
	ret
.LFE2070:
	.size	_ZN9__gnu_cxx13new_allocatorI10LSP_PacketE8allocateEjPKv, .-_ZN9__gnu_cxx13new_allocatorI10LSP_PacketE8allocateEjPKv
	.section	.text._ZNSt11_Deque_baseI10LSP_PacketSaIS0_EE16_M_allocate_nodeEv,"axG",@progbits,_ZNSt11_Deque_baseI10LSP_PacketSaIS0_EE16_M_allocate_nodeEv,comdat
	.align 2
	.weak	_ZNSt11_Deque_baseI10LSP_PacketSaIS0_EE16_M_allocate_nodeEv
	.type	_ZNSt11_Deque_baseI10LSP_PacketSaIS0_EE16_M_allocate_nodeEv, @function
_ZNSt11_Deque_baseI10LSP_PacketSaIS0_EE16_M_allocate_nodeEv:
.LFB2047:
	pushl	%ebp
.LCFI227:
	movl	%esp, %ebp
.LCFI228:
	subl	$24, %esp
.LCFI229:
	movl	$16, (%esp)
	call	_ZSt16__deque_buf_sizej
	movl	%eax, %edx
	movl	8(%ebp), %eax
	movl	$0, 8(%esp)
	movl	%edx, 4(%esp)
	movl	%eax, (%esp)
	call	_ZN9__gnu_cxx13new_allocatorI10LSP_PacketE8allocateEjPKv
	leave
	ret
.LFE2047:
	.size	_ZNSt11_Deque_baseI10LSP_PacketSaIS0_EE16_M_allocate_nodeEv, .-_ZNSt11_Deque_baseI10LSP_PacketSaIS0_EE16_M_allocate_nodeEv
	.section	.text._ZN9__gnu_cxx13new_allocatorIP8ConnInfoE8allocateEjPKv,"axG",@progbits,_ZN9__gnu_cxx13new_allocatorIP8ConnInfoE8allocateEjPKv,comdat
	.align 2
	.weak	_ZN9__gnu_cxx13new_allocatorIP8ConnInfoE8allocateEjPKv
	.type	_ZN9__gnu_cxx13new_allocatorIP8ConnInfoE8allocateEjPKv, @function
_ZN9__gnu_cxx13new_allocatorIP8ConnInfoE8allocateEjPKv:
.LFB2044:
	pushl	%ebp
.LCFI230:
	movl	%esp, %ebp
.LCFI231:
	subl	$8, %esp
.LCFI232:
	movl	8(%ebp), %eax
	movl	%eax, (%esp)
	call	_ZNK9__gnu_cxx13new_allocatorIP8ConnInfoE8max_sizeEv
	cmpl	12(%ebp), %eax
	setb	%al
	movzbl	%al, %eax
	testl	%eax, %eax
	setne	%al
	testb	%al, %al
	je	.L213
	call	_ZSt17__throw_bad_allocv
.L213:
	movl	12(%ebp), %eax
	sall	$2, %eax
	movl	%eax, (%esp)
	call	_Znwj
	leave
	ret
.LFE2044:
	.size	_ZN9__gnu_cxx13new_allocatorIP8ConnInfoE8allocateEjPKv, .-_ZN9__gnu_cxx13new_allocatorIP8ConnInfoE8allocateEjPKv
	.section	.text._ZNSt12_Vector_baseIP8ConnInfoSaIS1_EE11_M_allocateEj,"axG",@progbits,_ZNSt12_Vector_baseIP8ConnInfoSaIS1_EE11_M_allocateEj,comdat
	.align 2
	.weak	_ZNSt12_Vector_baseIP8ConnInfoSaIS1_EE11_M_allocateEj
	.type	_ZNSt12_Vector_baseIP8ConnInfoSaIS1_EE11_M_allocateEj, @function
_ZNSt12_Vector_baseIP8ConnInfoSaIS1_EE11_M_allocateEj:
.LFB2018:
	pushl	%ebp
.LCFI233:
	movl	%esp, %ebp
.LCFI234:
	subl	$24, %esp
.LCFI235:
	movl	8(%ebp), %eax
	movl	%eax, %edx
	movl	$0, 8(%esp)
	movl	12(%ebp), %eax
	movl	%eax, 4(%esp)
	movl	%edx, (%esp)
	call	_ZN9__gnu_cxx13new_allocatorIP8ConnInfoE8allocateEjPKv
	leave
	ret
.LFE2018:
	.size	_ZNSt12_Vector_baseIP8ConnInfoSaIS1_EE11_M_allocateEj, .-_ZNSt12_Vector_baseIP8ConnInfoSaIS1_EE11_M_allocateEj
	.section	.text._ZN9__gnu_cxx13new_allocatorI10LSP_PacketE10deallocateEPS1_j,"axG",@progbits,_ZN9__gnu_cxx13new_allocatorI10LSP_PacketE10deallocateEPS1_j,comdat
	.align 2
	.weak	_ZN9__gnu_cxx13new_allocatorI10LSP_PacketE10deallocateEPS1_j
	.type	_ZN9__gnu_cxx13new_allocatorI10LSP_PacketE10deallocateEPS1_j, @function
_ZN9__gnu_cxx13new_allocatorI10LSP_PacketE10deallocateEPS1_j:
.LFB2048:
	pushl	%ebp
.LCFI236:
	movl	%esp, %ebp
.LCFI237:
	subl	$8, %esp
.LCFI238:
	movl	12(%ebp), %eax
	movl	%eax, (%esp)
	call	_ZdlPv
	leave
	ret
.LFE2048:
	.size	_ZN9__gnu_cxx13new_allocatorI10LSP_PacketE10deallocateEPS1_j, .-_ZN9__gnu_cxx13new_allocatorI10LSP_PacketE10deallocateEPS1_j
	.section	.text._ZNSt11_Deque_baseI10LSP_PacketSaIS0_EE18_M_deallocate_nodeEPS0_,"axG",@progbits,_ZNSt11_Deque_baseI10LSP_PacketSaIS0_EE18_M_deallocate_nodeEPS0_,comdat
	.align 2
	.weak	_ZNSt11_Deque_baseI10LSP_PacketSaIS0_EE18_M_deallocate_nodeEPS0_
	.type	_ZNSt11_Deque_baseI10LSP_PacketSaIS0_EE18_M_deallocate_nodeEPS0_, @function
_ZNSt11_Deque_baseI10LSP_PacketSaIS0_EE18_M_deallocate_nodeEPS0_:
.LFB2030:
	pushl	%ebp
.LCFI239:
	movl	%esp, %ebp
.LCFI240:
	subl	$24, %esp
.LCFI241:
	movl	$16, (%esp)
	call	_ZSt16__deque_buf_sizej
	movl	%eax, %edx
	movl	8(%ebp), %eax
	movl	%eax, %ecx
	movl	%edx, 8(%esp)
	movl	12(%ebp), %eax
	movl	%eax, 4(%esp)
	movl	%ecx, (%esp)
	call	_ZN9__gnu_cxx13new_allocatorI10LSP_PacketE10deallocateEPS1_j
	leave
	ret
.LFE2030:
	.size	_ZNSt11_Deque_baseI10LSP_PacketSaIS0_EE18_M_deallocate_nodeEPS0_, .-_ZNSt11_Deque_baseI10LSP_PacketSaIS0_EE18_M_deallocate_nodeEPS0_
	.section	.text._ZNSt11_Deque_baseI10LSP_PacketSaIS0_EE16_M_destroy_nodesEPPS0_S4_,"axG",@progbits,_ZNSt11_Deque_baseI10LSP_PacketSaIS0_EE16_M_destroy_nodesEPPS0_S4_,comdat
	.align 2
	.weak	_ZNSt11_Deque_baseI10LSP_PacketSaIS0_EE16_M_destroy_nodesEPPS0_S4_
	.type	_ZNSt11_Deque_baseI10LSP_PacketSaIS0_EE16_M_destroy_nodesEPPS0_S4_, @function
_ZNSt11_Deque_baseI10LSP_PacketSaIS0_EE16_M_destroy_nodesEPPS0_S4_:
.LFB2001:
	pushl	%ebp
.LCFI242:
	movl	%esp, %ebp
.LCFI243:
	subl	$24, %esp
.LCFI244:
	movl	12(%ebp), %eax
	movl	%eax, -4(%ebp)
	jmp	.L223
.L224:
	movl	-4(%ebp), %eax
	movl	(%eax), %eax
	movl	%eax, 4(%esp)
	movl	8(%ebp), %eax
	movl	%eax, (%esp)
	call	_ZNSt11_Deque_baseI10LSP_PacketSaIS0_EE18_M_deallocate_nodeEPS0_
	addl	$4, -4(%ebp)
.L223:
	movl	-4(%ebp), %eax
	cmpl	16(%ebp), %eax
	jb	.L224
	leave
	ret
.LFE2001:
	.size	_ZNSt11_Deque_baseI10LSP_PacketSaIS0_EE16_M_destroy_nodesEPPS0_S4_, .-_ZNSt11_Deque_baseI10LSP_PacketSaIS0_EE16_M_destroy_nodesEPPS0_S4_
	.section	.text._ZNSt11_Deque_baseI10LSP_PacketSaIS0_EE15_M_create_nodesEPPS0_S4_,"axG",@progbits,_ZNSt11_Deque_baseI10LSP_PacketSaIS0_EE15_M_create_nodesEPPS0_S4_,comdat
	.align 2
	.weak	_ZNSt11_Deque_baseI10LSP_PacketSaIS0_EE15_M_create_nodesEPPS0_S4_
	.type	_ZNSt11_Deque_baseI10LSP_PacketSaIS0_EE15_M_create_nodesEPPS0_S4_, @function
_ZNSt11_Deque_baseI10LSP_PacketSaIS0_EE15_M_create_nodesEPPS0_S4_:
.LFB2028:
	pushl	%ebp
.LCFI245:
	movl	%esp, %ebp
.LCFI246:
	pushl	%ebx
.LCFI247:
	subl	$36, %esp
.LCFI248:
	movl	12(%ebp), %eax
	movl	%eax, -8(%ebp)
	jmp	.L228
.L229:
	movl	8(%ebp), %eax
	movl	%eax, (%esp)
.LEHB2:
	call	_ZNSt11_Deque_baseI10LSP_PacketSaIS0_EE16_M_allocate_nodeEv
.LEHE2:
	movl	%eax, %edx
	movl	-8(%ebp), %eax
	movl	%edx, (%eax)
	addl	$4, -8(%ebp)
.L228:
	movl	-8(%ebp), %eax
	cmpl	16(%ebp), %eax
	jb	.L229
	jmp	.L233
.L236:
	movl	%eax, -24(%ebp)
.L231:
	movl	-24(%ebp), %eax
	movl	%eax, (%esp)
	call	__cxa_begin_catch
	movl	-8(%ebp), %eax
	movl	%eax, 8(%esp)
	movl	12(%ebp), %eax
	movl	%eax, 4(%esp)
	movl	8(%ebp), %eax
	movl	%eax, (%esp)
	call	_ZNSt11_Deque_baseI10LSP_PacketSaIS0_EE16_M_destroy_nodesEPPS0_S4_
.LEHB3:
	call	__cxa_rethrow
.LEHE3:
.L235:
	movl	%eax, -24(%ebp)
.L232:
	movl	-24(%ebp), %ebx
	call	__cxa_end_catch
	movl	%ebx, -24(%ebp)
	movl	-24(%ebp), %eax
	movl	%eax, (%esp)
.LEHB4:
	call	_Unwind_Resume
.LEHE4:
.L233:
	addl	$36, %esp
	popl	%ebx
	popl	%ebp
	ret
.LFE2028:
	.size	_ZNSt11_Deque_baseI10LSP_PacketSaIS0_EE15_M_create_nodesEPPS0_S4_, .-_ZNSt11_Deque_baseI10LSP_PacketSaIS0_EE15_M_create_nodesEPPS0_S4_
	.section	.gcc_except_table
	.align 4
.LLSDA2028:
	.byte	0xff
	.byte	0x0
	.uleb128 .LLSDATT2028-.LLSDATTD2028
.LLSDATTD2028:
	.byte	0x1
	.uleb128 .LLSDACSE2028-.LLSDACSB2028
.LLSDACSB2028:
	.uleb128 .LEHB2-.LFB2028
	.uleb128 .LEHE2-.LEHB2
	.uleb128 .L236-.LFB2028
	.uleb128 0x1
	.uleb128 .LEHB3-.LFB2028
	.uleb128 .LEHE3-.LEHB3
	.uleb128 .L235-.LFB2028
	.uleb128 0x0
	.uleb128 .LEHB4-.LFB2028
	.uleb128 .LEHE4-.LEHB4
	.uleb128 0x0
	.uleb128 0x0
.LLSDACSE2028:
	.byte	0x1
	.byte	0x0
	.align 4
	.long	0
.LLSDATT2028:
	.section	.text._ZNSt11_Deque_baseI10LSP_PacketSaIS0_EE15_M_create_nodesEPPS0_S4_,"axG",@progbits,_ZNSt11_Deque_baseI10LSP_PacketSaIS0_EE15_M_create_nodesEPPS0_S4_,comdat
	.section	.text._ZN9__gnu_cxx13new_allocatorIP10LSP_PacketE10deallocateEPS2_j,"axG",@progbits,_ZN9__gnu_cxx13new_allocatorIP10LSP_PacketE10deallocateEPS2_j,comdat
	.align 2
	.weak	_ZN9__gnu_cxx13new_allocatorIP10LSP_PacketE10deallocateEPS2_j
	.type	_ZN9__gnu_cxx13new_allocatorIP10LSP_PacketE10deallocateEPS2_j, @function
_ZN9__gnu_cxx13new_allocatorIP10LSP_PacketE10deallocateEPS2_j:
.LFB2035:
	pushl	%ebp
.LCFI249:
	movl	%esp, %ebp
.LCFI250:
	subl	$8, %esp
.LCFI251:
	movl	12(%ebp), %eax
	movl	%eax, (%esp)
	call	_ZdlPv
	leave
	ret
.LFE2035:
	.size	_ZN9__gnu_cxx13new_allocatorIP10LSP_PacketE10deallocateEPS2_j, .-_ZN9__gnu_cxx13new_allocatorIP10LSP_PacketE10deallocateEPS2_j
	.section	.text._ZNSt11_Deque_baseI10LSP_PacketSaIS0_EE17_M_deallocate_mapEPPS0_j,"axG",@progbits,_ZNSt11_Deque_baseI10LSP_PacketSaIS0_EE17_M_deallocate_mapEPPS0_j,comdat
	.align 2
	.weak	_ZNSt11_Deque_baseI10LSP_PacketSaIS0_EE17_M_deallocate_mapEPPS0_j
	.type	_ZNSt11_Deque_baseI10LSP_PacketSaIS0_EE17_M_deallocate_mapEPPS0_j, @function
_ZNSt11_Deque_baseI10LSP_PacketSaIS0_EE17_M_deallocate_mapEPPS0_j:
.LFB2002:
	pushl	%ebp
.LCFI252:
	movl	%esp, %ebp
.LCFI253:
	subl	$40, %esp
.LCFI254:
	leal	-1(%ebp), %edx
	movl	8(%ebp), %eax
	movl	%eax, 4(%esp)
	movl	%edx, (%esp)
	call	_ZNKSt11_Deque_baseI10LSP_PacketSaIS0_EE20_M_get_map_allocatorEv
	subl	$4, %esp
	leal	-1(%ebp), %edx
	movl	16(%ebp), %eax
	movl	%eax, 8(%esp)
	movl	12(%ebp), %eax
	movl	%eax, 4(%esp)
	movl	%edx, (%esp)
	call	_ZN9__gnu_cxx13new_allocatorIP10LSP_PacketE10deallocateEPS2_j
	leal	-1(%ebp), %eax
	movl	%eax, (%esp)
	call	_ZNSaIP10LSP_PacketED1Ev
	leave
	ret
.LFE2002:
	.size	_ZNSt11_Deque_baseI10LSP_PacketSaIS0_EE17_M_deallocate_mapEPPS0_j, .-_ZNSt11_Deque_baseI10LSP_PacketSaIS0_EE17_M_deallocate_mapEPPS0_j
	.section	.text._ZNSt11_Deque_baseI10LSP_PacketSaIS0_EE17_M_initialize_mapEj,"axG",@progbits,_ZNSt11_Deque_baseI10LSP_PacketSaIS0_EE17_M_initialize_mapEj,comdat
	.align 2
	.weak	_ZNSt11_Deque_baseI10LSP_PacketSaIS0_EE17_M_initialize_mapEj
	.type	_ZNSt11_Deque_baseI10LSP_PacketSaIS0_EE17_M_initialize_mapEj, @function
_ZNSt11_Deque_baseI10LSP_PacketSaIS0_EE17_M_initialize_mapEj:
.LFB2000:
	pushl	%ebp
.LCFI255:
	movl	%esp, %ebp
.LCFI256:
	pushl	%ebx
.LCFI257:
	subl	$52, %esp
.LCFI258:
	movl	$16, (%esp)
	call	_ZSt16__deque_buf_sizej
	movl	%eax, %edx
	movl	12(%ebp), %eax
	movl	%edx, %ecx
	movl	$0, %edx
	divl	%ecx
	addl	$1, %eax
	movl	%eax, -8(%ebp)
	movl	-8(%ebp), %eax
	addl	$2, %eax
	movl	%eax, -16(%ebp)
	movl	$8, -12(%ebp)
	leal	-16(%ebp), %eax
	movl	%eax, 4(%esp)
	leal	-12(%ebp), %eax
	movl	%eax, (%esp)
	call	_ZSt3maxIjERKT_S2_S2_
	movl	(%eax), %edx
	movl	8(%ebp), %eax
	movl	%edx, 4(%eax)
	movl	8(%ebp), %eax
	movl	4(%eax), %eax
	movl	%eax, 4(%esp)
	movl	8(%ebp), %eax
	movl	%eax, (%esp)
.LEHB5:
	call	_ZNSt11_Deque_baseI10LSP_PacketSaIS0_EE15_M_allocate_mapEj
.LEHE5:
	movl	%eax, %edx
	movl	8(%ebp), %eax
	movl	%edx, (%eax)
	movl	8(%ebp), %eax
	movl	(%eax), %edx
	movl	8(%ebp), %eax
	movl	4(%eax), %eax
	subl	-8(%ebp), %eax
	shrl	%eax
	sall	$2, %eax
	leal	(%edx,%eax), %eax
	movl	%eax, -20(%ebp)
	movl	-8(%ebp), %eax
	sall	$2, %eax
	addl	-20(%ebp), %eax
	movl	%eax, -24(%ebp)
	movl	-24(%ebp), %eax
	movl	%eax, 8(%esp)
	movl	-20(%ebp), %eax
	movl	%eax, 4(%esp)
	movl	8(%ebp), %eax
	movl	%eax, (%esp)
.LEHB6:
	call	_ZNSt11_Deque_baseI10LSP_PacketSaIS0_EE15_M_create_nodesEPPS0_S4_
.LEHE6:
	movl	8(%ebp), %edx
	addl	$8, %edx
	movl	-20(%ebp), %eax
	movl	%eax, 4(%esp)
	movl	%edx, (%esp)
	call	_ZNSt15_Deque_iteratorI10LSP_PacketRS0_PS0_E11_M_set_nodeEPS2_
	movl	-24(%ebp), %eax
	subl	$4, %eax
	movl	8(%ebp), %edx
	addl	$24, %edx
	movl	%eax, 4(%esp)
	movl	%edx, (%esp)
	call	_ZNSt15_Deque_iteratorI10LSP_PacketRS0_PS0_E11_M_set_nodeEPS2_
	movl	8(%ebp), %eax
	movl	12(%eax), %edx
	movl	8(%ebp), %eax
	movl	%edx, 8(%eax)
	movl	8(%ebp), %eax
	movl	28(%eax), %ebx
	movl	$16, (%esp)
	call	_ZSt16__deque_buf_sizej
	movl	%eax, %edx
	movl	12(%ebp), %eax
	movl	%edx, %ecx
	movl	$0, %edx
	divl	%ecx
	movl	%edx, %eax
	sall	$4, %eax
	leal	(%ebx,%eax), %edx
	movl	8(%ebp), %eax
	movl	%edx, 24(%eax)
	jmp	.L244
.L247:
	movl	%eax, -40(%ebp)
.L242:
	movl	-40(%ebp), %eax
	movl	%eax, (%esp)
	call	__cxa_begin_catch
	movl	8(%ebp), %eax
	movl	4(%eax), %edx
	movl	8(%ebp), %eax
	movl	(%eax), %eax
	movl	%edx, 8(%esp)
	movl	%eax, 4(%esp)
	movl	8(%ebp), %eax
	movl	%eax, (%esp)
	call	_ZNSt11_Deque_baseI10LSP_PacketSaIS0_EE17_M_deallocate_mapEPPS0_j
	movl	8(%ebp), %eax
	movl	$0, (%eax)
	movl	8(%ebp), %eax
	movl	$0, 4(%eax)
.LEHB7:
	call	__cxa_rethrow
.LEHE7:
.L246:
	movl	%eax, -40(%ebp)
.L243:
	movl	-40(%ebp), %ebx
	call	__cxa_end_catch
	movl	%ebx, -40(%ebp)
	movl	-40(%ebp), %ecx
	movl	%ecx, (%esp)
.LEHB8:
	call	_Unwind_Resume
.LEHE8:
.L244:
	addl	$52, %esp
	popl	%ebx
	popl	%ebp
	ret
.LFE2000:
	.size	_ZNSt11_Deque_baseI10LSP_PacketSaIS0_EE17_M_initialize_mapEj, .-_ZNSt11_Deque_baseI10LSP_PacketSaIS0_EE17_M_initialize_mapEj
	.section	.gcc_except_table
	.align 4
.LLSDA2000:
	.byte	0xff
	.byte	0x0
	.uleb128 .LLSDATT2000-.LLSDATTD2000
.LLSDATTD2000:
	.byte	0x1
	.uleb128 .LLSDACSE2000-.LLSDACSB2000
.LLSDACSB2000:
	.uleb128 .LEHB5-.LFB2000
	.uleb128 .LEHE5-.LEHB5
	.uleb128 0x0
	.uleb128 0x0
	.uleb128 .LEHB6-.LFB2000
	.uleb128 .LEHE6-.LEHB6
	.uleb128 .L247-.LFB2000
	.uleb128 0x1
	.uleb128 .LEHB7-.LFB2000
	.uleb128 .LEHE7-.LEHB7
	.uleb128 .L246-.LFB2000
	.uleb128 0x0
	.uleb128 .LEHB8-.LFB2000
	.uleb128 .LEHE8-.LEHB8
	.uleb128 0x0
	.uleb128 0x0
.LLSDACSE2000:
	.byte	0x1
	.byte	0x0
	.align 4
	.long	0
.LLSDATT2000:
	.section	.text._ZNSt11_Deque_baseI10LSP_PacketSaIS0_EE17_M_initialize_mapEj,"axG",@progbits,_ZNSt11_Deque_baseI10LSP_PacketSaIS0_EE17_M_initialize_mapEj,comdat
	.section	.text._ZNSt11_Deque_baseI10LSP_PacketSaIS0_EEC2ERKS1_j,"axG",@progbits,_ZNSt11_Deque_baseI10LSP_PacketSaIS0_EEC2ERKS1_j,comdat
	.align 2
	.weak	_ZNSt11_Deque_baseI10LSP_PacketSaIS0_EEC2ERKS1_j
	.type	_ZNSt11_Deque_baseI10LSP_PacketSaIS0_EEC2ERKS1_j, @function
_ZNSt11_Deque_baseI10LSP_PacketSaIS0_EEC2ERKS1_j:
.LFB1947:
	pushl	%ebp
.LCFI259:
	movl	%esp, %ebp
.LCFI260:
	pushl	%ebx
.LCFI261:
	subl	$20, %esp
.LCFI262:
	movl	8(%ebp), %edx
	movl	12(%ebp), %eax
	movl	%eax, 4(%esp)
	movl	%edx, (%esp)
	call	_ZNSt11_Deque_baseI10LSP_PacketSaIS0_EE11_Deque_implC1ERKS1_
	movl	16(%ebp), %eax
	movl	%eax, 4(%esp)
	movl	8(%ebp), %eax
	movl	%eax, (%esp)
.LEHB9:
	call	_ZNSt11_Deque_baseI10LSP_PacketSaIS0_EE17_M_initialize_mapEj
.LEHE9:
	jmp	.L250
.L251:
	movl	%eax, -8(%ebp)
.L249:
	movl	-8(%ebp), %ebx
	movl	8(%ebp), %eax
	movl	%eax, (%esp)
	call	_ZNSt11_Deque_baseI10LSP_PacketSaIS0_EE11_Deque_implD1Ev
	movl	%ebx, -8(%ebp)
	movl	-8(%ebp), %eax
	movl	%eax, (%esp)
.LEHB10:
	call	_Unwind_Resume
.LEHE10:
.L250:
	addl	$20, %esp
	popl	%ebx
	popl	%ebp
	ret
.LFE1947:
	.size	_ZNSt11_Deque_baseI10LSP_PacketSaIS0_EEC2ERKS1_j, .-_ZNSt11_Deque_baseI10LSP_PacketSaIS0_EEC2ERKS1_j
	.section	.gcc_except_table
.LLSDA1947:
	.byte	0xff
	.byte	0xff
	.byte	0x1
	.uleb128 .LLSDACSE1947-.LLSDACSB1947
.LLSDACSB1947:
	.uleb128 .LEHB9-.LFB1947
	.uleb128 .LEHE9-.LEHB9
	.uleb128 .L251-.LFB1947
	.uleb128 0x0
	.uleb128 .LEHB10-.LFB1947
	.uleb128 .LEHE10-.LEHB10
	.uleb128 0x0
	.uleb128 0x0
.LLSDACSE1947:
	.section	.text._ZNSt11_Deque_baseI10LSP_PacketSaIS0_EEC2ERKS1_j,"axG",@progbits,_ZNSt11_Deque_baseI10LSP_PacketSaIS0_EEC2ERKS1_j,comdat
	.section	.text._ZNSt5dequeI10LSP_PacketSaIS0_EEC1ERKS1_,"axG",@progbits,_ZNSt5dequeI10LSP_PacketSaIS0_EEC1ERKS1_,comdat
	.align 2
	.weak	_ZNSt5dequeI10LSP_PacketSaIS0_EEC1ERKS1_
	.type	_ZNSt5dequeI10LSP_PacketSaIS0_EEC1ERKS1_, @function
_ZNSt5dequeI10LSP_PacketSaIS0_EEC1ERKS1_:
.LFB1891:
	pushl	%ebp
.LCFI263:
	movl	%esp, %ebp
.LCFI264:
	subl	$24, %esp
.LCFI265:
	movl	8(%ebp), %edx
	movl	$0, 8(%esp)
	movl	12(%ebp), %eax
	movl	%eax, 4(%esp)
	movl	%edx, (%esp)
	call	_ZNSt11_Deque_baseI10LSP_PacketSaIS0_EEC2ERKS1_j
	leave
	ret
.LFE1891:
	.size	_ZNSt5dequeI10LSP_PacketSaIS0_EEC1ERKS1_, .-_ZNSt5dequeI10LSP_PacketSaIS0_EEC1ERKS1_
	.section	.text._ZNSt11_Deque_baseI10LSP_PacketSaIS0_EED2Ev,"axG",@progbits,_ZNSt11_Deque_baseI10LSP_PacketSaIS0_EED2Ev,comdat
	.align 2
	.weak	_ZNSt11_Deque_baseI10LSP_PacketSaIS0_EED2Ev
	.type	_ZNSt11_Deque_baseI10LSP_PacketSaIS0_EED2Ev, @function
_ZNSt11_Deque_baseI10LSP_PacketSaIS0_EED2Ev:
.LFB1950:
	pushl	%ebp
.LCFI266:
	movl	%esp, %ebp
.LCFI267:
	subl	$24, %esp
.LCFI268:
	movl	8(%ebp), %eax
	movl	(%eax), %eax
	testl	%eax, %eax
	je	.L255
	movl	8(%ebp), %eax
	movl	36(%eax), %eax
	leal	4(%eax), %edx
	movl	8(%ebp), %eax
	movl	20(%eax), %eax
	movl	%edx, 8(%esp)
	movl	%eax, 4(%esp)
	movl	8(%ebp), %eax
	movl	%eax, (%esp)
	call	_ZNSt11_Deque_baseI10LSP_PacketSaIS0_EE16_M_destroy_nodesEPPS0_S4_
	movl	8(%ebp), %eax
	movl	4(%eax), %edx
	movl	8(%ebp), %eax
	movl	(%eax), %eax
	movl	%edx, 8(%esp)
	movl	%eax, 4(%esp)
	movl	8(%ebp), %eax
	movl	%eax, (%esp)
	call	_ZNSt11_Deque_baseI10LSP_PacketSaIS0_EE17_M_deallocate_mapEPPS0_j
.L255:
	movl	8(%ebp), %eax
	movl	%eax, (%esp)
	call	_ZNSt11_Deque_baseI10LSP_PacketSaIS0_EE11_Deque_implD1Ev
	leave
	ret
.LFE1950:
	.size	_ZNSt11_Deque_baseI10LSP_PacketSaIS0_EED2Ev, .-_ZNSt11_Deque_baseI10LSP_PacketSaIS0_EED2Ev
	.section	.text._ZN10LSP_PacketD1Ev,"axG",@progbits,_ZN10LSP_PacketD1Ev,comdat
	.align 2
	.weak	_ZN10LSP_PacketD1Ev
	.type	_ZN10LSP_PacketD1Ev, @function
_ZN10LSP_PacketD1Ev:
.LFB1814:
	pushl	%ebp
.LCFI269:
	movl	%esp, %ebp
.LCFI270:
	subl	$8, %esp
.LCFI271:
	movl	8(%ebp), %eax
	movl	12(%eax), %eax
	testl	%eax, %eax
	je	.L262
	movl	8(%ebp), %eax
	movl	12(%eax), %eax
	movl	%eax, (%esp)
	call	_ZdlPv
.L262:
	leave
	ret
.LFE1814:
	.size	_ZN10LSP_PacketD1Ev, .-_ZN10LSP_PacketD1Ev
	.section	.text._ZSt8_DestroyI10LSP_PacketEvPT_,"axG",@progbits,_ZSt8_DestroyI10LSP_PacketEvPT_,comdat
	.align 2
	.weak	_ZSt8_DestroyI10LSP_PacketEvPT_
	.type	_ZSt8_DestroyI10LSP_PacketEvPT_, @function
_ZSt8_DestroyI10LSP_PacketEvPT_:
.LFB2087:
	pushl	%ebp
.LCFI272:
	movl	%esp, %ebp
.LCFI273:
	subl	$8, %esp
.LCFI274:
	movl	8(%ebp), %eax
	movl	%eax, (%esp)
	call	_ZN10LSP_PacketD1Ev
	leave
	ret
.LFE2087:
	.size	_ZSt8_DestroyI10LSP_PacketEvPT_, .-_ZSt8_DestroyI10LSP_PacketEvPT_
	.section	.text._ZSt13__destroy_auxISt15_Deque_iteratorI10LSP_PacketRS1_PS1_EEvT_S5_St12__false_type,"axG",@progbits,_ZSt13__destroy_auxISt15_Deque_iteratorI10LSP_PacketRS1_PS1_EEvT_S5_St12__false_type,comdat
	.align 2
	.weak	_ZSt13__destroy_auxISt15_Deque_iteratorI10LSP_PacketRS1_PS1_EEvT_S5_St12__false_type
	.type	_ZSt13__destroy_auxISt15_Deque_iteratorI10LSP_PacketRS1_PS1_EEvT_S5_St12__false_type, @function
_ZSt13__destroy_auxISt15_Deque_iteratorI10LSP_PacketRS1_PS1_EEvT_S5_St12__false_type:
.LFB2080:
	pushl	%ebp
.LCFI275:
	movl	%esp, %ebp
.LCFI276:
	subl	$8, %esp
.LCFI277:
	jmp	.L266
.L267:
	movl	8(%ebp), %eax
	movl	%eax, (%esp)
	call	_ZNKSt15_Deque_iteratorI10LSP_PacketRS0_PS0_EdeEv
	movl	%eax, (%esp)
	call	_ZSt8_DestroyI10LSP_PacketEvPT_
	movl	8(%ebp), %eax
	movl	%eax, (%esp)
	call	_ZNSt15_Deque_iteratorI10LSP_PacketRS0_PS0_EppEv
.L266:
	movl	12(%ebp), %eax
	movl	%eax, 4(%esp)
	movl	8(%ebp), %eax
	movl	%eax, (%esp)
	call	_ZStneI10LSP_PacketRS0_PS0_EbRKSt15_Deque_iteratorIT_T0_T1_ES9_
	testb	%al, %al
	jne	.L267
	leave
	ret
.LFE2080:
	.size	_ZSt13__destroy_auxISt15_Deque_iteratorI10LSP_PacketRS1_PS1_EEvT_S5_St12__false_type, .-_ZSt13__destroy_auxISt15_Deque_iteratorI10LSP_PacketRS1_PS1_EEvT_S5_St12__false_type
	.section	.text._ZSt8_DestroyISt15_Deque_iteratorI10LSP_PacketRS1_PS1_EEvT_S5_,"axG",@progbits,_ZSt8_DestroyISt15_Deque_iteratorI10LSP_PacketRS1_PS1_EEvT_S5_,comdat
	.align 2
	.weak	_ZSt8_DestroyISt15_Deque_iteratorI10LSP_PacketRS1_PS1_EEvT_S5_
	.type	_ZSt8_DestroyISt15_Deque_iteratorI10LSP_PacketRS1_PS1_EEvT_S5_, @function
_ZSt8_DestroyISt15_Deque_iteratorI10LSP_PacketRS1_PS1_EEvT_S5_:
.LFB2066:
	pushl	%ebp
.LCFI278:
	movl	%esp, %ebp
.LCFI279:
	subl	$56, %esp
.LCFI280:
	movl	12(%ebp), %eax
	movl	%eax, 4(%esp)
	leal	-32(%ebp), %eax
	movl	%eax, (%esp)
	call	_ZNSt15_Deque_iteratorI10LSP_PacketRS0_PS0_EC1ERKS3_
	movl	8(%ebp), %eax
	movl	%eax, 4(%esp)
	leal	-16(%ebp), %eax
	movl	%eax, (%esp)
	call	_ZNSt15_Deque_iteratorI10LSP_PacketRS0_PS0_EC1ERKS3_
	movzbl	-33(%ebp), %eax
	movb	%al, 8(%esp)
	leal	-32(%ebp), %eax
	movl	%eax, 4(%esp)
	leal	-16(%ebp), %eax
	movl	%eax, (%esp)
	call	_ZSt13__destroy_auxISt15_Deque_iteratorI10LSP_PacketRS1_PS1_EEvT_S5_St12__false_type
	leave
	ret
.LFE2066:
	.size	_ZSt8_DestroyISt15_Deque_iteratorI10LSP_PacketRS1_PS1_EEvT_S5_, .-_ZSt8_DestroyISt15_Deque_iteratorI10LSP_PacketRS1_PS1_EEvT_S5_
	.section	.text._ZSt13__destroy_auxIP10LSP_PacketEvT_S2_St12__false_type,"axG",@progbits,_ZSt13__destroy_auxIP10LSP_PacketEvT_S2_St12__false_type,comdat
	.align 2
	.weak	_ZSt13__destroy_auxIP10LSP_PacketEvT_S2_St12__false_type
	.type	_ZSt13__destroy_auxIP10LSP_PacketEvT_S2_St12__false_type, @function
_ZSt13__destroy_auxIP10LSP_PacketEvT_S2_St12__false_type:
.LFB2084:
	pushl	%ebp
.LCFI281:
	movl	%esp, %ebp
.LCFI282:
	subl	$8, %esp
.LCFI283:
	jmp	.L273
.L274:
	movl	8(%ebp), %eax
	movl	%eax, (%esp)
	call	_ZSt8_DestroyI10LSP_PacketEvPT_
	addl	$16, 8(%ebp)
.L273:
	movl	8(%ebp), %eax
	cmpl	12(%ebp), %eax
	jne	.L274
	leave
	ret
.LFE2084:
	.size	_ZSt13__destroy_auxIP10LSP_PacketEvT_S2_St12__false_type, .-_ZSt13__destroy_auxIP10LSP_PacketEvT_S2_St12__false_type
	.section	.text._ZSt8_DestroyIP10LSP_PacketEvT_S2_,"axG",@progbits,_ZSt8_DestroyIP10LSP_PacketEvT_S2_,comdat
	.align 2
	.weak	_ZSt8_DestroyIP10LSP_PacketEvT_S2_
	.type	_ZSt8_DestroyIP10LSP_PacketEvT_S2_, @function
_ZSt8_DestroyIP10LSP_PacketEvT_S2_:
.LFB2077:
	pushl	%ebp
.LCFI284:
	movl	%esp, %ebp
.LCFI285:
	subl	$24, %esp
.LCFI286:
	movzbl	-1(%ebp), %eax
	movb	%al, 8(%esp)
	movl	12(%ebp), %eax
	movl	%eax, 4(%esp)
	movl	8(%ebp), %eax
	movl	%eax, (%esp)
	call	_ZSt13__destroy_auxIP10LSP_PacketEvT_S2_St12__false_type
	leave
	ret
.LFE2077:
	.size	_ZSt8_DestroyIP10LSP_PacketEvT_S2_, .-_ZSt8_DestroyIP10LSP_PacketEvT_S2_
	.section	.text._ZSt8_DestroyIP10LSP_PacketS0_EvT_S2_SaIT0_E,"axG",@progbits,_ZSt8_DestroyIP10LSP_PacketS0_EvT_S2_SaIT0_E,comdat
	.align 2
	.weak	_ZSt8_DestroyIP10LSP_PacketS0_EvT_S2_SaIT0_E
	.type	_ZSt8_DestroyIP10LSP_PacketS0_EvT_S2_SaIT0_E, @function
_ZSt8_DestroyIP10LSP_PacketS0_EvT_S2_SaIT0_E:
.LFB2059:
	pushl	%ebp
.LCFI287:
	movl	%esp, %ebp
.LCFI288:
	subl	$8, %esp
.LCFI289:
	movl	12(%ebp), %eax
	movl	%eax, 4(%esp)
	movl	8(%ebp), %eax
	movl	%eax, (%esp)
	call	_ZSt8_DestroyIP10LSP_PacketEvT_S2_
	leave
	ret
.LFE2059:
	.size	_ZSt8_DestroyIP10LSP_PacketS0_EvT_S2_SaIT0_E, .-_ZSt8_DestroyIP10LSP_PacketS0_EvT_S2_SaIT0_E
	.section	.text._ZNSt5dequeI10LSP_PacketSaIS0_EE19_M_destroy_data_auxESt15_Deque_iteratorIS0_RS0_PS0_ES6_,"axG",@progbits,_ZNSt5dequeI10LSP_PacketSaIS0_EE19_M_destroy_data_auxESt15_Deque_iteratorIS0_RS0_PS0_ES6_,comdat
	.align 2
	.weak	_ZNSt5dequeI10LSP_PacketSaIS0_EE19_M_destroy_data_auxESt15_Deque_iteratorIS0_RS0_PS0_ES6_
	.type	_ZNSt5dequeI10LSP_PacketSaIS0_EE19_M_destroy_data_auxESt15_Deque_iteratorIS0_RS0_PS0_ES6_, @function
_ZNSt5dequeI10LSP_PacketSaIS0_EE19_M_destroy_data_auxESt15_Deque_iteratorIS0_RS0_PS0_ES6_:
.LFB2036:
	pushl	%ebp
.LCFI290:
	movl	%esp, %ebp
.LCFI291:
	pushl	%ebx
.LCFI292:
	subl	$36, %esp
.LCFI293:
	movl	12(%ebp), %eax
	movl	12(%eax), %eax
	addl	$4, %eax
	movl	%eax, -12(%ebp)
	jmp	.L282
.L283:
	movl	8(%ebp), %eax
	movl	%eax, (%esp)
	call	_ZNSt11_Deque_baseI10LSP_PacketSaIS0_EE19_M_get_Tp_allocatorEv
	movl	%eax, 4(%esp)
	leal	-5(%ebp), %eax
	movl	%eax, (%esp)
	call	_ZNSaI10LSP_PacketEC1ERKS0_
	movl	-12(%ebp), %eax
	movl	(%eax), %ebx
	call	_ZNSt5dequeI10LSP_PacketSaIS0_EE14_S_buffer_sizeEv
	sall	$4, %eax
	leal	(%ebx,%eax), %edx
	movl	-12(%ebp), %eax
	movl	(%eax), %ecx
	leal	-5(%ebp), %eax
	movl	%eax, 8(%esp)
	movl	%edx, 4(%esp)
	movl	%ecx, (%esp)
	call	_ZSt8_DestroyIP10LSP_PacketS0_EvT_S2_SaIT0_E
	leal	-5(%ebp), %eax
	movl	%eax, (%esp)
	call	_ZNSaI10LSP_PacketED1Ev
	addl	$4, -12(%ebp)
.L282:
	movl	16(%ebp), %eax
	movl	12(%eax), %eax
	cmpl	-12(%ebp), %eax
	ja	.L283
	movl	12(%ebp), %eax
	movl	12(%eax), %edx
	movl	16(%ebp), %eax
	movl	12(%eax), %eax
	cmpl	%eax, %edx
	je	.L285
	movl	8(%ebp), %eax
	movl	%eax, (%esp)
	call	_ZNSt11_Deque_baseI10LSP_PacketSaIS0_EE19_M_get_Tp_allocatorEv
	movl	%eax, 4(%esp)
	leal	-6(%ebp), %eax
	movl	%eax, (%esp)
	call	_ZNSaI10LSP_PacketEC1ERKS0_
	movl	12(%ebp), %eax
	movl	8(%eax), %edx
	movl	12(%ebp), %eax
	movl	(%eax), %ecx
	leal	-6(%ebp), %eax
	movl	%eax, 8(%esp)
	movl	%edx, 4(%esp)
	movl	%ecx, (%esp)
	call	_ZSt8_DestroyIP10LSP_PacketS0_EvT_S2_SaIT0_E
	leal	-6(%ebp), %eax
	movl	%eax, (%esp)
	call	_ZNSaI10LSP_PacketED1Ev
	movl	8(%ebp), %eax
	movl	%eax, (%esp)
	call	_ZNSt11_Deque_baseI10LSP_PacketSaIS0_EE19_M_get_Tp_allocatorEv
	movl	%eax, 4(%esp)
	leal	-7(%ebp), %eax
	movl	%eax, (%esp)
	call	_ZNSaI10LSP_PacketEC1ERKS0_
	movl	16(%ebp), %eax
	movl	(%eax), %edx
	movl	16(%ebp), %eax
	movl	4(%eax), %ecx
	leal	-7(%ebp), %eax
	movl	%eax, 8(%esp)
	movl	%edx, 4(%esp)
	movl	%ecx, (%esp)
	call	_ZSt8_DestroyIP10LSP_PacketS0_EvT_S2_SaIT0_E
	leal	-7(%ebp), %eax
	movl	%eax, (%esp)
	call	_ZNSaI10LSP_PacketED1Ev
	jmp	.L288
.L285:
	movl	8(%ebp), %eax
	movl	%eax, (%esp)
	call	_ZNSt11_Deque_baseI10LSP_PacketSaIS0_EE19_M_get_Tp_allocatorEv
	movl	%eax, 4(%esp)
	leal	-8(%ebp), %eax
	movl	%eax, (%esp)
	call	_ZNSaI10LSP_PacketEC1ERKS0_
	movl	16(%ebp), %eax
	movl	(%eax), %edx
	movl	12(%ebp), %eax
	movl	(%eax), %ecx
	leal	-8(%ebp), %eax
	movl	%eax, 8(%esp)
	movl	%edx, 4(%esp)
	movl	%ecx, (%esp)
	call	_ZSt8_DestroyIP10LSP_PacketS0_EvT_S2_SaIT0_E
	leal	-8(%ebp), %eax
	movl	%eax, (%esp)
	call	_ZNSaI10LSP_PacketED1Ev
.L288:
	addl	$36, %esp
	popl	%ebx
	popl	%ebp
	ret
.LFE2036:
	.size	_ZNSt5dequeI10LSP_PacketSaIS0_EE19_M_destroy_data_auxESt15_Deque_iteratorIS0_RS0_PS0_ES6_, .-_ZNSt5dequeI10LSP_PacketSaIS0_EE19_M_destroy_data_auxESt15_Deque_iteratorIS0_RS0_PS0_ES6_
	.section	.text._ZNSt5dequeI10LSP_PacketSaIS0_EE24_M_destroy_data_dispatchESt15_Deque_iteratorIS0_RS0_PS0_ES6_St12__false_type,"axG",@progbits,_ZNSt5dequeI10LSP_PacketSaIS0_EE24_M_destroy_data_dispatchESt15_Deque_iteratorIS0_RS0_PS0_ES6_St12__false_type,comdat
	.align 2
	.weak	_ZNSt5dequeI10LSP_PacketSaIS0_EE24_M_destroy_data_dispatchESt15_Deque_iteratorIS0_RS0_PS0_ES6_St12__false_type
	.type	_ZNSt5dequeI10LSP_PacketSaIS0_EE24_M_destroy_data_dispatchESt15_Deque_iteratorIS0_RS0_PS0_ES6_St12__false_type, @function
_ZNSt5dequeI10LSP_PacketSaIS0_EE24_M_destroy_data_dispatchESt15_Deque_iteratorIS0_RS0_PS0_ES6_St12__false_type:
.LFB2003:
	pushl	%ebp
.LCFI294:
	movl	%esp, %ebp
.LCFI295:
	subl	$56, %esp
.LCFI296:
	movl	16(%ebp), %eax
	movl	%eax, 4(%esp)
	leal	-32(%ebp), %eax
	movl	%eax, (%esp)
	call	_ZNSt15_Deque_iteratorI10LSP_PacketRS0_PS0_EC1ERKS3_
	movl	12(%ebp), %eax
	movl	%eax, 4(%esp)
	leal	-16(%ebp), %eax
	movl	%eax, (%esp)
	call	_ZNSt15_Deque_iteratorI10LSP_PacketRS0_PS0_EC1ERKS3_
	leal	-32(%ebp), %eax
	movl	%eax, 8(%esp)
	leal	-16(%ebp), %eax
	movl	%eax, 4(%esp)
	movl	8(%ebp), %eax
	movl	%eax, (%esp)
	call	_ZNSt5dequeI10LSP_PacketSaIS0_EE19_M_destroy_data_auxESt15_Deque_iteratorIS0_RS0_PS0_ES6_
	leave
	ret
.LFE2003:
	.size	_ZNSt5dequeI10LSP_PacketSaIS0_EE24_M_destroy_data_dispatchESt15_Deque_iteratorIS0_RS0_PS0_ES6_St12__false_type, .-_ZNSt5dequeI10LSP_PacketSaIS0_EE24_M_destroy_data_dispatchESt15_Deque_iteratorIS0_RS0_PS0_ES6_St12__false_type
	.section	.text._ZNSt5dequeI10LSP_PacketSaIS0_EE15_M_destroy_dataESt15_Deque_iteratorIS0_RS0_PS0_ES6_RKS1_,"axG",@progbits,_ZNSt5dequeI10LSP_PacketSaIS0_EE15_M_destroy_dataESt15_Deque_iteratorIS0_RS0_PS0_ES6_RKS1_,comdat
	.align 2
	.weak	_ZNSt5dequeI10LSP_PacketSaIS0_EE15_M_destroy_dataESt15_Deque_iteratorIS0_RS0_PS0_ES6_RKS1_
	.type	_ZNSt5dequeI10LSP_PacketSaIS0_EE15_M_destroy_dataESt15_Deque_iteratorIS0_RS0_PS0_ES6_RKS1_, @function
_ZNSt5dequeI10LSP_PacketSaIS0_EE15_M_destroy_dataESt15_Deque_iteratorIS0_RS0_PS0_ES6_RKS1_:
.LFB1958:
	pushl	%ebp
.LCFI297:
	movl	%esp, %ebp
.LCFI298:
	subl	$56, %esp
.LCFI299:
	movl	16(%ebp), %eax
	movl	%eax, 4(%esp)
	leal	-32(%ebp), %eax
	movl	%eax, (%esp)
	call	_ZNSt15_Deque_iteratorI10LSP_PacketRS0_PS0_EC1ERKS3_
	movl	12(%ebp), %eax
	movl	%eax, 4(%esp)
	leal	-16(%ebp), %eax
	movl	%eax, (%esp)
	call	_ZNSt15_Deque_iteratorI10LSP_PacketRS0_PS0_EC1ERKS3_
	movzbl	-33(%ebp), %eax
	movb	%al, 12(%esp)
	leal	-32(%ebp), %eax
	movl	%eax, 8(%esp)
	leal	-16(%ebp), %eax
	movl	%eax, 4(%esp)
	movl	8(%ebp), %eax
	movl	%eax, (%esp)
	call	_ZNSt5dequeI10LSP_PacketSaIS0_EE24_M_destroy_data_dispatchESt15_Deque_iteratorIS0_RS0_PS0_ES6_St12__false_type
	leave
	ret
.LFE1958:
	.size	_ZNSt5dequeI10LSP_PacketSaIS0_EE15_M_destroy_dataESt15_Deque_iteratorIS0_RS0_PS0_ES6_RKS1_, .-_ZNSt5dequeI10LSP_PacketSaIS0_EE15_M_destroy_dataESt15_Deque_iteratorIS0_RS0_PS0_ES6_RKS1_
	.section	.text._ZNSt5dequeI10LSP_PacketSaIS0_EED1Ev,"axG",@progbits,_ZNSt5dequeI10LSP_PacketSaIS0_EED1Ev,comdat
	.align 2
	.weak	_ZNSt5dequeI10LSP_PacketSaIS0_EED1Ev
	.type	_ZNSt5dequeI10LSP_PacketSaIS0_EED1Ev, @function
_ZNSt5dequeI10LSP_PacketSaIS0_EED1Ev:
.LFB1894:
	pushl	%ebp
.LCFI300:
	movl	%esp, %ebp
.LCFI301:
	pushl	%ebx
.LCFI302:
	subl	$52, %esp
.LCFI303:
	movl	8(%ebp), %eax
	movl	%eax, (%esp)
	call	_ZNSt11_Deque_baseI10LSP_PacketSaIS0_EE19_M_get_Tp_allocatorEv
	movl	%eax, %ebx
	leal	-20(%ebp), %edx
	movl	8(%ebp), %eax
	movl	%eax, 4(%esp)
	movl	%edx, (%esp)
	call	_ZNSt5dequeI10LSP_PacketSaIS0_EE3endEv
	subl	$4, %esp
	leal	-36(%ebp), %edx
	movl	8(%ebp), %eax
	movl	%eax, 4(%esp)
	movl	%edx, (%esp)
	call	_ZNSt5dequeI10LSP_PacketSaIS0_EE5beginEv
	subl	$4, %esp
	movl	%ebx, 12(%esp)
	leal	-20(%ebp), %eax
	movl	%eax, 8(%esp)
	leal	-36(%ebp), %eax
	movl	%eax, 4(%esp)
	movl	8(%ebp), %eax
	movl	%eax, (%esp)
	call	_ZNSt5dequeI10LSP_PacketSaIS0_EE15_M_destroy_dataESt15_Deque_iteratorIS0_RS0_PS0_ES6_RKS1_
	movl	8(%ebp), %eax
	movl	%eax, (%esp)
	call	_ZNSt11_Deque_baseI10LSP_PacketSaIS0_EED2Ev
	movl	-4(%ebp), %ebx
	leave
	ret
.LFE1894:
	.size	_ZNSt5dequeI10LSP_PacketSaIS0_EED1Ev, .-_ZNSt5dequeI10LSP_PacketSaIS0_EED1Ev
	.section	.text._ZNSt5queueI10LSP_PacketSt5dequeIS0_SaIS0_EEED1Ev,"axG",@progbits,_ZNSt5queueI10LSP_PacketSt5dequeIS0_SaIS0_EEED1Ev,comdat
	.align 2
	.weak	_ZNSt5queueI10LSP_PacketSt5dequeIS0_SaIS0_EEED1Ev
	.type	_ZNSt5queueI10LSP_PacketSt5dequeIS0_SaIS0_EEED1Ev, @function
_ZNSt5queueI10LSP_PacketSt5dequeIS0_SaIS0_EEED1Ev:
.LFB1822:
	pushl	%ebp
.LCFI304:
	movl	%esp, %ebp
.LCFI305:
	subl	$8, %esp
.LCFI306:
	movl	8(%ebp), %eax
	movl	%eax, (%esp)
	call	_ZNSt5dequeI10LSP_PacketSaIS0_EED1Ev
	leave
	ret
.LFE1822:
	.size	_ZNSt5queueI10LSP_PacketSt5dequeIS0_SaIS0_EEED1Ev, .-_ZNSt5queueI10LSP_PacketSt5dequeIS0_SaIS0_EEED1Ev
	.section	.text._ZN8ConnInfoD1Ev,"axG",@progbits,_ZN8ConnInfoD1Ev,comdat
	.align 2
	.weak	_ZN8ConnInfoD1Ev
	.type	_ZN8ConnInfoD1Ev, @function
_ZN8ConnInfoD1Ev:
.LFB1867:
	pushl	%ebp
.LCFI307:
	movl	%esp, %ebp
.LCFI308:
	subl	$8, %esp
.LCFI309:
	movl	8(%ebp), %eax
	addl	$32, %eax
	movl	%eax, (%esp)
	call	_ZNSt5queueI10LSP_PacketSt5dequeIS0_SaIS0_EEED1Ev
	movl	8(%ebp), %eax
	movl	%eax, (%esp)
	call	_ZNSsD1Ev
	leave
	ret
.LFE1867:
	.size	_ZN8ConnInfoD1Ev, .-_ZN8ConnInfoD1Ev
	.section	.text._ZN5InboxD1Ev,"axG",@progbits,_ZN5InboxD1Ev,comdat
	.align 2
	.weak	_ZN5InboxD1Ev
	.type	_ZN5InboxD1Ev, @function
_ZN5InboxD1Ev:
.LFB1837:
	pushl	%ebp
.LCFI310:
	movl	%esp, %ebp
.LCFI311:
	subl	$8, %esp
.LCFI312:
	movl	8(%ebp), %eax
	movl	%eax, (%esp)
	call	_ZNSt5queueI10LSP_PacketSt5dequeIS0_SaIS0_EEED1Ev
	leave
	ret
.LFE1837:
	.size	_ZN5InboxD1Ev, .-_ZN5InboxD1Ev
	.section	.text._ZN9__gnu_cxx13new_allocatorIP8ConnInfoE10deallocateEPS2_j,"axG",@progbits,_ZN9__gnu_cxx13new_allocatorIP8ConnInfoE10deallocateEPS2_j,comdat
	.align 2
	.weak	_ZN9__gnu_cxx13new_allocatorIP8ConnInfoE10deallocateEPS2_j
	.type	_ZN9__gnu_cxx13new_allocatorIP8ConnInfoE10deallocateEPS2_j, @function
_ZN9__gnu_cxx13new_allocatorIP8ConnInfoE10deallocateEPS2_j:
.LFB2039:
	pushl	%ebp
.LCFI313:
	movl	%esp, %ebp
.LCFI314:
	subl	$8, %esp
.LCFI315:
	movl	12(%ebp), %eax
	movl	%eax, (%esp)
	call	_ZdlPv
	leave
	ret
.LFE2039:
	.size	_ZN9__gnu_cxx13new_allocatorIP8ConnInfoE10deallocateEPS2_j, .-_ZN9__gnu_cxx13new_allocatorIP8ConnInfoE10deallocateEPS2_j
	.section	.text._ZNSt12_Vector_baseIP8ConnInfoSaIS1_EE13_M_deallocateEPS1_j,"axG",@progbits,_ZNSt12_Vector_baseIP8ConnInfoSaIS1_EE13_M_deallocateEPS1_j,comdat
	.align 2
	.weak	_ZNSt12_Vector_baseIP8ConnInfoSaIS1_EE13_M_deallocateEPS1_j
	.type	_ZNSt12_Vector_baseIP8ConnInfoSaIS1_EE13_M_deallocateEPS1_j, @function
_ZNSt12_Vector_baseIP8ConnInfoSaIS1_EE13_M_deallocateEPS1_j:
.LFB2012:
	pushl	%ebp
.LCFI316:
	movl	%esp, %ebp
.LCFI317:
	subl	$24, %esp
.LCFI318:
	cmpl	$0, 12(%ebp)
	je	.L310
	movl	8(%ebp), %eax
	movl	%eax, %edx
	movl	16(%ebp), %eax
	movl	%eax, 8(%esp)
	movl	12(%ebp), %eax
	movl	%eax, 4(%esp)
	movl	%edx, (%esp)
	call	_ZN9__gnu_cxx13new_allocatorIP8ConnInfoE10deallocateEPS2_j
.L310:
	leave
	ret
.LFE2012:
	.size	_ZNSt12_Vector_baseIP8ConnInfoSaIS1_EE13_M_deallocateEPS1_j, .-_ZNSt12_Vector_baseIP8ConnInfoSaIS1_EE13_M_deallocateEPS1_j
	.section	.text._ZNSt12_Vector_baseIP8ConnInfoSaIS1_EED2Ev,"axG",@progbits,_ZNSt12_Vector_baseIP8ConnInfoSaIS1_EED2Ev,comdat
	.align 2
	.weak	_ZNSt12_Vector_baseIP8ConnInfoSaIS1_EED2Ev
	.type	_ZNSt12_Vector_baseIP8ConnInfoSaIS1_EED2Ev, @function
_ZNSt12_Vector_baseIP8ConnInfoSaIS1_EED2Ev:
.LFB1980:
	pushl	%ebp
.LCFI319:
	movl	%esp, %ebp
.LCFI320:
	subl	$24, %esp
.LCFI321:
	movl	8(%ebp), %eax
	movl	8(%eax), %eax
	movl	%eax, %edx
	movl	8(%ebp), %eax
	movl	(%eax), %eax
	movl	%edx, %ecx
	subl	%eax, %ecx
	movl	%ecx, %eax
	sarl	$2, %eax
	movl	%eax, %edx
	movl	8(%ebp), %eax
	movl	(%eax), %eax
	movl	%edx, 8(%esp)
	movl	%eax, 4(%esp)
	movl	8(%ebp), %eax
	movl	%eax, (%esp)
	call	_ZNSt12_Vector_baseIP8ConnInfoSaIS1_EE13_M_deallocateEPS1_j
	movl	8(%ebp), %eax
	movl	%eax, (%esp)
	call	_ZNSt12_Vector_baseIP8ConnInfoSaIS1_EE12_Vector_implD1Ev
	leave
	ret
.LFE1980:
	.size	_ZNSt12_Vector_baseIP8ConnInfoSaIS1_EED2Ev, .-_ZNSt12_Vector_baseIP8ConnInfoSaIS1_EED2Ev
	.section	.text._ZNSt6vectorIP8ConnInfoSaIS1_EED1Ev,"axG",@progbits,_ZNSt6vectorIP8ConnInfoSaIS1_EED1Ev,comdat
	.align 2
	.weak	_ZNSt6vectorIP8ConnInfoSaIS1_EED1Ev
	.type	_ZNSt6vectorIP8ConnInfoSaIS1_EED1Ev, @function
_ZNSt6vectorIP8ConnInfoSaIS1_EED1Ev:
.LFB1915:
	pushl	%ebp
.LCFI322:
	movl	%esp, %ebp
.LCFI323:
	subl	$40, %esp
.LCFI324:
	movl	8(%ebp), %eax
	movl	%eax, (%esp)
	call	_ZNSt12_Vector_baseIP8ConnInfoSaIS1_EE19_M_get_Tp_allocatorEv
	movl	%eax, 4(%esp)
	leal	-1(%ebp), %eax
	movl	%eax, (%esp)
	call	_ZNSaIP8ConnInfoEC1ERKS1_
	movl	8(%ebp), %eax
	movl	4(%eax), %edx
	movl	8(%ebp), %eax
	movl	(%eax), %ecx
	leal	-1(%ebp), %eax
	movl	%eax, 8(%esp)
	movl	%edx, 4(%esp)
	movl	%ecx, (%esp)
	call	_ZSt8_DestroyIPP8ConnInfoS1_EvT_S3_SaIT0_E
	leal	-1(%ebp), %eax
	movl	%eax, (%esp)
	call	_ZNSaIP8ConnInfoED1Ev
	movl	8(%ebp), %eax
	movl	%eax, (%esp)
	call	_ZNSt12_Vector_baseIP8ConnInfoSaIS1_EED2Ev
	leave
	ret
.LFE1915:
	.size	_ZNSt6vectorIP8ConnInfoSaIS1_EED1Ev, .-_ZNSt6vectorIP8ConnInfoSaIS1_EED1Ev
	.section	.text._ZN10LSP_PacketC1ERKS_,"axG",@progbits,_ZN10LSP_PacketC1ERKS_,comdat
	.align 2
	.weak	_ZN10LSP_PacketC1ERKS_
	.type	_ZN10LSP_PacketC1ERKS_, @function
_ZN10LSP_PacketC1ERKS_:
.LFB1810:
	pushl	%ebp
.LCFI325:
	movl	%esp, %ebp
.LCFI326:
	subl	$24, %esp
.LCFI327:
	movl	12(%ebp), %eax
	movl	(%eax), %edx
	movl	8(%ebp), %eax
	movl	%edx, (%eax)
	movl	12(%ebp), %eax
	movl	4(%eax), %edx
	movl	8(%ebp), %eax
	movl	%edx, 4(%eax)
	movl	12(%ebp), %eax
	movl	8(%eax), %edx
	movl	8(%ebp), %eax
	movl	%edx, 8(%eax)
	movl	8(%ebp), %eax
	movl	8(%eax), %eax
	movl	%eax, (%esp)
	call	_Znaj
	movl	%eax, %edx
	movl	8(%ebp), %eax
	movl	%edx, 12(%eax)
	movl	8(%ebp), %eax
	movl	8(%eax), %edx
	movl	12(%ebp), %eax
	movl	12(%eax), %ecx
	movl	8(%ebp), %eax
	movl	12(%eax), %eax
	movl	%edx, 8(%esp)
	movl	%ecx, 4(%esp)
	movl	%eax, (%esp)
	call	memcpy
	leave
	ret
.LFE1810:
	.size	_ZN10LSP_PacketC1ERKS_, .-_ZN10LSP_PacketC1ERKS_
	.section	.text._ZSt10_ConstructI10LSP_PacketS0_EvPT_RKT0_,"axG",@progbits,_ZSt10_ConstructI10LSP_PacketS0_EvPT_RKT0_,comdat
	.align 2
	.weak	_ZSt10_ConstructI10LSP_PacketS0_EvPT_RKT0_
	.type	_ZSt10_ConstructI10LSP_PacketS0_EvPT_RKT0_, @function
_ZSt10_ConstructI10LSP_PacketS0_EvPT_RKT0_:
.LFB2065:
	pushl	%ebp
.LCFI328:
	movl	%esp, %ebp
.LCFI329:
	pushl	%ebx
.LCFI330:
	subl	$36, %esp
.LCFI331:
	movl	8(%ebp), %eax
	movl	%eax, 4(%esp)
	movl	$16, (%esp)
	call	_ZnwjPv
	movl	%eax, -8(%ebp)
	cmpl	$0, -8(%ebp)
	je	.L324
	movl	12(%ebp), %eax
	movl	%eax, 4(%esp)
	movl	-8(%ebp), %eax
	movl	%eax, (%esp)
.LEHB11:
	call	_ZN10LSP_PacketC1ERKS_
.LEHE11:
	jmp	.L324
.L325:
	movl	%eax, -12(%ebp)
.L323:
	movl	-12(%ebp), %ebx
	movl	8(%ebp), %eax
	movl	%eax, 4(%esp)
	movl	-8(%ebp), %eax
	movl	%eax, (%esp)
	call	_ZdlPvS_
	movl	%ebx, -12(%ebp)
	movl	-12(%ebp), %eax
	movl	%eax, (%esp)
.LEHB12:
	call	_Unwind_Resume
.LEHE12:
.L324:
	addl	$36, %esp
	popl	%ebx
	popl	%ebp
	ret
.LFE2065:
	.size	_ZSt10_ConstructI10LSP_PacketS0_EvPT_RKT0_, .-_ZSt10_ConstructI10LSP_PacketS0_EvPT_RKT0_
	.section	.gcc_except_table
.LLSDA2065:
	.byte	0xff
	.byte	0xff
	.byte	0x1
	.uleb128 .LLSDACSE2065-.LLSDACSB2065
.LLSDACSB2065:
	.uleb128 .LEHB11-.LFB2065
	.uleb128 .LEHE11-.LEHB11
	.uleb128 .L325-.LFB2065
	.uleb128 0x0
	.uleb128 .LEHB12-.LFB2065
	.uleb128 .LEHE12-.LEHB12
	.uleb128 0x0
	.uleb128 0x0
.LLSDACSE2065:
	.section	.text._ZSt10_ConstructI10LSP_PacketS0_EvPT_RKT0_,"axG",@progbits,_ZSt10_ConstructI10LSP_PacketS0_EvPT_RKT0_,comdat
	.section	.text._ZSt24__uninitialized_copy_auxISt15_Deque_iteratorI10LSP_PacketRKS1_PS2_ES0_IS1_RS1_PS1_EET0_T_SA_S9_St12__false_type,"axG",@progbits,_ZSt24__uninitialized_copy_auxISt15_Deque_iteratorI10LSP_PacketRKS1_PS2_ES0_IS1_RS1_PS1_EET0_T_SA_S9_St12__false_type,comdat
	.align 2
	.weak	_ZSt24__uninitialized_copy_auxISt15_Deque_iteratorI10LSP_PacketRKS1_PS2_ES0_IS1_RS1_PS1_EET0_T_SA_S9_St12__false_type
	.type	_ZSt24__uninitialized_copy_auxISt15_Deque_iteratorI10LSP_PacketRKS1_PS2_ES0_IS1_RS1_PS1_EET0_T_SA_S9_St12__false_type, @function
_ZSt24__uninitialized_copy_auxISt15_Deque_iteratorI10LSP_PacketRKS1_PS2_ES0_IS1_RS1_PS1_EET0_T_SA_S9_St12__false_type:
.LFB2038:
	pushl	%ebp
.LCFI332:
	movl	%esp, %ebp
.LCFI333:
	pushl	%ebx
.LCFI334:
	subl	$68, %esp
.LCFI335:
	movl	8(%ebp), %edx
	movl	44(%ebp), %eax
	movl	%eax, 4(%esp)
	movl	%edx, (%esp)
	call	_ZNSt15_Deque_iteratorI10LSP_PacketRS0_PS0_EC1ERKS3_
	jmp	.L327
.L328:
	leal	12(%ebp), %eax
	movl	%eax, (%esp)
	call	_ZNKSt15_Deque_iteratorI10LSP_PacketRKS0_PS1_EdeEv
	movl	%eax, %ebx
	movl	8(%ebp), %eax
	movl	%eax, (%esp)
	call	_ZNKSt15_Deque_iteratorI10LSP_PacketRS0_PS0_EdeEv
	movl	%ebx, 4(%esp)
	movl	%eax, (%esp)
.LEHB13:
	call	_ZSt10_ConstructI10LSP_PacketS0_EvPT_RKT0_
.LEHE13:
	leal	12(%ebp), %eax
	movl	%eax, (%esp)
	call	_ZNSt15_Deque_iteratorI10LSP_PacketRKS0_PS1_EppEv
	movl	8(%ebp), %eax
	movl	%eax, (%esp)
	call	_ZNSt15_Deque_iteratorI10LSP_PacketRS0_PS0_EppEv
.L327:
	leal	28(%ebp), %eax
	movl	%eax, 4(%esp)
	leal	12(%ebp), %eax
	movl	%eax, (%esp)
	call	_ZStneI10LSP_PacketRKS0_PS1_EbRKSt15_Deque_iteratorIT_T0_T1_ESA_
	testb	%al, %al
	jne	.L328
	jmp	.L326
.L335:
	movl	%eax, -56(%ebp)
.L330:
	movl	-56(%ebp), %eax
	movl	%eax, (%esp)
	call	__cxa_begin_catch
	movl	8(%ebp), %eax
	movl	%eax, 4(%esp)
	leal	-52(%ebp), %eax
	movl	%eax, (%esp)
	call	_ZNSt15_Deque_iteratorI10LSP_PacketRS0_PS0_EC1ERKS3_
	movl	44(%ebp), %eax
	movl	%eax, 4(%esp)
	leal	-36(%ebp), %eax
	movl	%eax, (%esp)
	call	_ZNSt15_Deque_iteratorI10LSP_PacketRS0_PS0_EC1ERKS3_
	leal	-52(%ebp), %eax
	movl	%eax, 4(%esp)
	leal	-36(%ebp), %eax
	movl	%eax, (%esp)
	call	_ZSt8_DestroyISt15_Deque_iteratorI10LSP_PacketRS1_PS1_EEvT_S5_
.LEHB14:
	call	__cxa_rethrow
.LEHE14:
.L334:
	movl	%eax, -56(%ebp)
.L331:
	movl	-56(%ebp), %ebx
	call	__cxa_end_catch
	movl	%ebx, -56(%ebp)
	movl	-56(%ebp), %eax
	movl	%eax, (%esp)
.LEHB15:
	call	_Unwind_Resume
.LEHE15:
.L326:
	movl	8(%ebp), %eax
	addl	$68, %esp
	popl	%ebx
	popl	%ebp
	ret	$4
.LFE2038:
	.size	_ZSt24__uninitialized_copy_auxISt15_Deque_iteratorI10LSP_PacketRKS1_PS2_ES0_IS1_RS1_PS1_EET0_T_SA_S9_St12__false_type, .-_ZSt24__uninitialized_copy_auxISt15_Deque_iteratorI10LSP_PacketRKS1_PS2_ES0_IS1_RS1_PS1_EET0_T_SA_S9_St12__false_type
	.section	.gcc_except_table
	.align 4
.LLSDA2038:
	.byte	0xff
	.byte	0x0
	.uleb128 .LLSDATT2038-.LLSDATTD2038
.LLSDATTD2038:
	.byte	0x1
	.uleb128 .LLSDACSE2038-.LLSDACSB2038
.LLSDACSB2038:
	.uleb128 .LEHB13-.LFB2038
	.uleb128 .LEHE13-.LEHB13
	.uleb128 .L335-.LFB2038
	.uleb128 0x1
	.uleb128 .LEHB14-.LFB2038
	.uleb128 .LEHE14-.LEHB14
	.uleb128 .L334-.LFB2038
	.uleb128 0x0
	.uleb128 .LEHB15-.LFB2038
	.uleb128 .LEHE15-.LEHB15
	.uleb128 0x0
	.uleb128 0x0
.LLSDACSE2038:
	.byte	0x1
	.byte	0x0
	.align 4
	.long	0
.LLSDATT2038:
	.section	.text._ZSt24__uninitialized_copy_auxISt15_Deque_iteratorI10LSP_PacketRKS1_PS2_ES0_IS1_RS1_PS1_EET0_T_SA_S9_St12__false_type,"axG",@progbits,_ZSt24__uninitialized_copy_auxISt15_Deque_iteratorI10LSP_PacketRKS1_PS2_ES0_IS1_RS1_PS1_EET0_T_SA_S9_St12__false_type,comdat
	.section	.text._ZSt18uninitialized_copyISt15_Deque_iteratorI10LSP_PacketRKS1_PS2_ES0_IS1_RS1_PS1_EET0_T_SA_S9_,"axG",@progbits,_ZSt18uninitialized_copyISt15_Deque_iteratorI10LSP_PacketRKS1_PS2_ES0_IS1_RS1_PS1_EET0_T_SA_S9_,comdat
	.align 2
	.weak	_ZSt18uninitialized_copyISt15_Deque_iteratorI10LSP_PacketRKS1_PS2_ES0_IS1_RS1_PS1_EET0_T_SA_S9_
	.type	_ZSt18uninitialized_copyISt15_Deque_iteratorI10LSP_PacketRKS1_PS2_ES0_IS1_RS1_PS1_EET0_T_SA_S9_, @function
_ZSt18uninitialized_copyISt15_Deque_iteratorI10LSP_PacketRKS1_PS2_ES0_IS1_RS1_PS1_EET0_T_SA_S9_:
.LFB2008:
	pushl	%ebp
.LCFI336:
	movl	%esp, %ebp
.LCFI337:
	pushl	%esi
.LCFI338:
	pushl	%ebx
.LCFI339:
	subl	$64, %esp
.LCFI340:
	movl	8(%ebp), %ebx
	movl	%ebx, %esi
	movl	44(%ebp), %eax
	movl	%eax, 4(%esp)
	leal	-24(%ebp), %eax
	movl	%eax, (%esp)
	call	_ZNSt15_Deque_iteratorI10LSP_PacketRS0_PS0_EC1ERKS3_
	movzbl	-25(%ebp), %eax
	movb	%al, 40(%esp)
	leal	-24(%ebp), %eax
	movl	%eax, 36(%esp)
	movl	28(%ebp), %eax
	movl	%eax, 20(%esp)
	movl	32(%ebp), %eax
	movl	%eax, 24(%esp)
	movl	36(%ebp), %eax
	movl	%eax, 28(%esp)
	movl	40(%ebp), %eax
	movl	%eax, 32(%esp)
	movl	12(%ebp), %eax
	movl	%eax, 4(%esp)
	movl	16(%ebp), %eax
	movl	%eax, 8(%esp)
	movl	20(%ebp), %eax
	movl	%eax, 12(%esp)
	movl	24(%ebp), %eax
	movl	%eax, 16(%esp)
	movl	%esi, (%esp)
	call	_ZSt24__uninitialized_copy_auxISt15_Deque_iteratorI10LSP_PacketRKS1_PS2_ES0_IS1_RS1_PS1_EET0_T_SA_S9_St12__false_type
	subl	$4, %esp
	movl	%ebx, %eax
	leal	-8(%ebp), %esp
	popl	%ebx
	popl	%esi
	popl	%ebp
	ret	$4
.LFE2008:
	.size	_ZSt18uninitialized_copyISt15_Deque_iteratorI10LSP_PacketRKS1_PS2_ES0_IS1_RS1_PS1_EET0_T_SA_S9_, .-_ZSt18uninitialized_copyISt15_Deque_iteratorI10LSP_PacketRKS1_PS2_ES0_IS1_RS1_PS1_EET0_T_SA_S9_
	.section	.text._ZSt22__uninitialized_copy_aISt15_Deque_iteratorI10LSP_PacketRKS1_PS2_ES0_IS1_RS1_PS1_ES1_ET0_T_SA_S9_SaIT1_E,"axG",@progbits,_ZSt22__uninitialized_copy_aISt15_Deque_iteratorI10LSP_PacketRKS1_PS2_ES0_IS1_RS1_PS1_ES1_ET0_T_SA_S9_SaIT1_E,comdat
	.align 2
	.weak	_ZSt22__uninitialized_copy_aISt15_Deque_iteratorI10LSP_PacketRKS1_PS2_ES0_IS1_RS1_PS1_ES1_ET0_T_SA_S9_SaIT1_E
	.type	_ZSt22__uninitialized_copy_aISt15_Deque_iteratorI10LSP_PacketRKS1_PS2_ES0_IS1_RS1_PS1_ES1_ET0_T_SA_S9_SaIT1_E, @function
_ZSt22__uninitialized_copy_aISt15_Deque_iteratorI10LSP_PacketRKS1_PS2_ES0_IS1_RS1_PS1_ES1_ET0_T_SA_S9_SaIT1_E:
.LFB1963:
	pushl	%ebp
.LCFI341:
	movl	%esp, %ebp
.LCFI342:
	pushl	%esi
.LCFI343:
	pushl	%ebx
.LCFI344:
	subl	$64, %esp
.LCFI345:
	movl	8(%ebp), %ebx
	movl	%ebx, %esi
	movl	44(%ebp), %eax
	movl	%eax, 4(%esp)
	leal	-24(%ebp), %eax
	movl	%eax, (%esp)
	call	_ZNSt15_Deque_iteratorI10LSP_PacketRS0_PS0_EC1ERKS3_
	leal	-24(%ebp), %eax
	movl	%eax, 36(%esp)
	movl	28(%ebp), %eax
	movl	%eax, 20(%esp)
	movl	32(%ebp), %eax
	movl	%eax, 24(%esp)
	movl	36(%ebp), %eax
	movl	%eax, 28(%esp)
	movl	40(%ebp), %eax
	movl	%eax, 32(%esp)
	movl	12(%ebp), %eax
	movl	%eax, 4(%esp)
	movl	16(%ebp), %eax
	movl	%eax, 8(%esp)
	movl	20(%ebp), %eax
	movl	%eax, 12(%esp)
	movl	24(%ebp), %eax
	movl	%eax, 16(%esp)
	movl	%esi, (%esp)
	call	_ZSt18uninitialized_copyISt15_Deque_iteratorI10LSP_PacketRKS1_PS2_ES0_IS1_RS1_PS1_EET0_T_SA_S9_
	subl	$4, %esp
	movl	%ebx, %eax
	leal	-8(%ebp), %esp
	popl	%ebx
	popl	%esi
	popl	%ebp
	ret	$4
.LFE1963:
	.size	_ZSt22__uninitialized_copy_aISt15_Deque_iteratorI10LSP_PacketRKS1_PS2_ES0_IS1_RS1_PS1_ES1_ET0_T_SA_S9_SaIT1_E, .-_ZSt22__uninitialized_copy_aISt15_Deque_iteratorI10LSP_PacketRKS1_PS2_ES0_IS1_RS1_PS1_ES1_ET0_T_SA_S9_SaIT1_E
	.section	.text._ZNSt5dequeI10LSP_PacketSaIS0_EEC1ERKS2_,"axG",@progbits,_ZNSt5dequeI10LSP_PacketSaIS0_EEC1ERKS2_,comdat
	.align 2
	.weak	_ZNSt5dequeI10LSP_PacketSaIS0_EEC1ERKS2_
	.type	_ZNSt5dequeI10LSP_PacketSaIS0_EEC1ERKS2_, @function
_ZNSt5dequeI10LSP_PacketSaIS0_EEC1ERKS2_:
.LFB1897:
	pushl	%ebp
.LCFI346:
	movl	%esp, %ebp
.LCFI347:
	pushl	%ebx
.LCFI348:
	subl	$148, %esp
.LCFI349:
	movl	12(%ebp), %eax
	movl	%eax, (%esp)
	call	_ZNKSt5dequeI10LSP_PacketSaIS0_EE4sizeEv
	movl	%eax, %ebx
	movl	12(%ebp), %eax
	movl	%eax, (%esp)
	call	_ZNKSt11_Deque_baseI10LSP_PacketSaIS0_EE19_M_get_Tp_allocatorEv
	movl	8(%ebp), %edx
	movl	%ebx, 8(%esp)
	movl	%eax, 4(%esp)
	movl	%edx, (%esp)
.LEHB16:
	call	_ZNSt11_Deque_baseI10LSP_PacketSaIS0_EEC2ERKS1_j
.LEHE16:
	movl	8(%ebp), %eax
	movl	%eax, (%esp)
	call	_ZNSt11_Deque_baseI10LSP_PacketSaIS0_EE19_M_get_Tp_allocatorEv
	movl	%eax, 4(%esp)
	leal	-9(%ebp), %eax
	movl	%eax, (%esp)
	call	_ZNSaI10LSP_PacketEC1ERKS0_
	movl	8(%ebp), %eax
	addl	$8, %eax
	movl	%eax, 4(%esp)
	leal	-28(%ebp), %eax
	movl	%eax, (%esp)
	call	_ZNSt15_Deque_iteratorI10LSP_PacketRS0_PS0_EC1ERKS3_
	leal	-44(%ebp), %edx
	movl	12(%ebp), %eax
	movl	%eax, 4(%esp)
	movl	%edx, (%esp)
	call	_ZNKSt5dequeI10LSP_PacketSaIS0_EE3endEv
	subl	$4, %esp
	leal	-60(%ebp), %edx
	movl	12(%ebp), %eax
	movl	%eax, 4(%esp)
	movl	%edx, (%esp)
	call	_ZNKSt5dequeI10LSP_PacketSaIS0_EE5beginEv
	subl	$4, %esp
	leal	-88(%ebp), %edx
	leal	-9(%ebp), %eax
	movl	%eax, 40(%esp)
	leal	-28(%ebp), %eax
	movl	%eax, 36(%esp)
	movl	-44(%ebp), %eax
	movl	%eax, 20(%esp)
	movl	-40(%ebp), %eax
	movl	%eax, 24(%esp)
	movl	-36(%ebp), %eax
	movl	%eax, 28(%esp)
	movl	-32(%ebp), %eax
	movl	%eax, 32(%esp)
	movl	-60(%ebp), %eax
	movl	%eax, 4(%esp)
	movl	-56(%ebp), %eax
	movl	%eax, 8(%esp)
	movl	-52(%ebp), %eax
	movl	%eax, 12(%esp)
	movl	-48(%ebp), %eax
	movl	%eax, 16(%esp)
	movl	%edx, (%esp)
.LEHB17:
	call	_ZSt22__uninitialized_copy_aISt15_Deque_iteratorI10LSP_PacketRKS1_PS2_ES0_IS1_RS1_PS1_ES1_ET0_T_SA_S9_SaIT1_E
.LEHE17:
	subl	$4, %esp
	leal	-9(%ebp), %eax
	movl	%eax, (%esp)
	call	_ZNSaI10LSP_PacketED1Ev
	jmp	.L343
.L344:
	movl	%eax, -92(%ebp)
.L341:
	movl	-92(%ebp), %ebx
	leal	-9(%ebp), %eax
	movl	%eax, (%esp)
	call	_ZNSaI10LSP_PacketED1Ev
	movl	%ebx, -92(%ebp)
.L345:
.L342:
	movl	-92(%ebp), %ebx
	movl	8(%ebp), %eax
	movl	%eax, (%esp)
	call	_ZNSt11_Deque_baseI10LSP_PacketSaIS0_EED2Ev
	movl	%ebx, -92(%ebp)
	movl	-92(%ebp), %eax
	movl	%eax, (%esp)
.LEHB18:
	call	_Unwind_Resume
.LEHE18:
.L343:
	movl	-4(%ebp), %ebx
	leave
	ret
.LFE1897:
	.size	_ZNSt5dequeI10LSP_PacketSaIS0_EEC1ERKS2_, .-_ZNSt5dequeI10LSP_PacketSaIS0_EEC1ERKS2_
	.section	.gcc_except_table
.LLSDA1897:
	.byte	0xff
	.byte	0xff
	.byte	0x1
	.uleb128 .LLSDACSE1897-.LLSDACSB1897
.LLSDACSB1897:
	.uleb128 .LEHB16-.LFB1897
	.uleb128 .LEHE16-.LEHB16
	.uleb128 0x0
	.uleb128 0x0
	.uleb128 .LEHB17-.LFB1897
	.uleb128 .LEHE17-.LEHB17
	.uleb128 .L344-.LFB1897
	.uleb128 0x0
	.uleb128 .LEHB18-.LFB1897
	.uleb128 .LEHE18-.LEHB18
	.uleb128 0x0
	.uleb128 0x0
.LLSDACSE1897:
	.section	.text._ZNSt5dequeI10LSP_PacketSaIS0_EEC1ERKS2_,"axG",@progbits,_ZNSt5dequeI10LSP_PacketSaIS0_EEC1ERKS2_,comdat
	.section	.text._ZNSt5queueI10LSP_PacketSt5dequeIS0_SaIS0_EEEC1ERKS3_,"axG",@progbits,_ZNSt5queueI10LSP_PacketSt5dequeIS0_SaIS0_EEEC1ERKS3_,comdat
	.align 2
	.weak	_ZNSt5queueI10LSP_PacketSt5dequeIS0_SaIS0_EEEC1ERKS3_
	.type	_ZNSt5queueI10LSP_PacketSt5dequeIS0_SaIS0_EEEC1ERKS3_, @function
_ZNSt5queueI10LSP_PacketSt5dequeIS0_SaIS0_EEEC1ERKS3_:
.LFB1900:
	pushl	%ebp
.LCFI350:
	movl	%esp, %ebp
.LCFI351:
	subl	$8, %esp
.LCFI352:
	movl	8(%ebp), %edx
	movl	12(%ebp), %eax
	movl	%eax, 4(%esp)
	movl	%edx, (%esp)
	call	_ZNSt5dequeI10LSP_PacketSaIS0_EEC1ERKS2_
	leave
	ret
.LFE1900:
	.size	_ZNSt5queueI10LSP_PacketSt5dequeIS0_SaIS0_EEEC1ERKS3_, .-_ZNSt5queueI10LSP_PacketSt5dequeIS0_SaIS0_EEEC1ERKS3_
	.section	.text._ZN8ConnInfoC1EiiSs,"axG",@progbits,_ZN8ConnInfoC1EiiSs,comdat
	.align 2
	.weak	_ZN8ConnInfoC1EiiSs
	.type	_ZN8ConnInfoC1EiiSs, @function
_ZN8ConnInfoC1EiiSs:
.LFB1824:
	pushl	%ebp
.LCFI353:
	movl	%esp, %ebp
.LCFI354:
	pushl	%ebx
.LCFI355:
	subl	$68, %esp
.LCFI356:
	movl	8(%ebp), %eax
	movl	%eax, (%esp)
	call	_ZN10UncopyableC2Ev
	movl	8(%ebp), %edx
	movl	20(%ebp), %eax
	movl	%eax, 4(%esp)
	movl	%edx, (%esp)
.LEHB19:
	call	_ZNSsC1ERKSs
.LEHE19:
	movl	8(%ebp), %edx
	movl	16(%ebp), %eax
	movl	%eax, 4(%edx)
	movl	8(%ebp), %edx
	movl	12(%ebp), %eax
	movl	%eax, 8(%edx)
	leal	-5(%ebp), %eax
	movl	%eax, (%esp)
	call	_ZNSaI10LSP_PacketEC1Ev
	leal	-5(%ebp), %eax
	movl	%eax, 4(%esp)
	leal	-48(%ebp), %eax
	movl	%eax, (%esp)
.LEHB20:
	call	_ZNSt5dequeI10LSP_PacketSaIS0_EEC1ERKS1_
.LEHE20:
	movl	8(%ebp), %edx
	addl	$32, %edx
	leal	-48(%ebp), %eax
	movl	%eax, 4(%esp)
	movl	%edx, (%esp)
.LEHB21:
	call	_ZNSt5queueI10LSP_PacketSt5dequeIS0_SaIS0_EEEC1ERKS3_
.LEHE21:
	leal	-48(%ebp), %eax
	movl	%eax, (%esp)
	call	_ZNSt5dequeI10LSP_PacketSaIS0_EED1Ev
	leal	-5(%ebp), %eax
	movl	%eax, (%esp)
	call	_ZNSaI10LSP_PacketED1Ev
	movl	8(%ebp), %eax
	movb	$0, 29(%eax)
	movl	8(%ebp), %eax
	movb	$1, 28(%eax)
	movl	8(%ebp), %eax
	movl	$1, 20(%eax)
	movl	8(%ebp), %eax
	movl	$0, 24(%eax)
	movl	8(%ebp), %eax
	movl	$0, 12(%eax)
	movl	8(%ebp), %eax
	movl	$0, 16(%eax)
	jmp	.L352
.L353:
	movl	%eax, -56(%ebp)
.L349:
	movl	-56(%ebp), %ebx
	leal	-48(%ebp), %eax
	movl	%eax, (%esp)
	call	_ZNSt5dequeI10LSP_PacketSaIS0_EED1Ev
	movl	%ebx, -56(%ebp)
	jmp	.L350
.L354:
	movl	%eax, -56(%ebp)
.L350:
	movl	-56(%ebp), %ebx
	leal	-5(%ebp), %eax
	movl	%eax, (%esp)
	call	_ZNSaI10LSP_PacketED1Ev
	movl	%ebx, -56(%ebp)
.L355:
.L351:
	movl	-56(%ebp), %ebx
	movl	8(%ebp), %eax
	movl	%eax, (%esp)
	call	_ZNSsD1Ev
	movl	%ebx, -56(%ebp)
	movl	-56(%ebp), %eax
	movl	%eax, (%esp)
.LEHB22:
	call	_Unwind_Resume
.LEHE22:
.L352:
	addl	$68, %esp
	popl	%ebx
	popl	%ebp
	ret
.LFE1824:
	.size	_ZN8ConnInfoC1EiiSs, .-_ZN8ConnInfoC1EiiSs
	.section	.gcc_except_table
.LLSDA1824:
	.byte	0xff
	.byte	0xff
	.byte	0x1
	.uleb128 .LLSDACSE1824-.LLSDACSB1824
.LLSDACSB1824:
	.uleb128 .LEHB19-.LFB1824
	.uleb128 .LEHE19-.LEHB19
	.uleb128 0x0
	.uleb128 0x0
	.uleb128 .LEHB20-.LFB1824
	.uleb128 .LEHE20-.LEHB20
	.uleb128 .L354-.LFB1824
	.uleb128 0x0
	.uleb128 .LEHB21-.LFB1824
	.uleb128 .LEHE21-.LEHB21
	.uleb128 .L353-.LFB1824
	.uleb128 0x0
	.uleb128 .LEHB22-.LFB1824
	.uleb128 .LEHE22-.LEHB22
	.uleb128 0x0
	.uleb128 0x0
.LLSDACSE1824:
	.section	.text._ZN8ConnInfoC1EiiSs,"axG",@progbits,_ZN8ConnInfoC1EiiSs,comdat
	.section	.text._ZN5InboxC1Ev,"axG",@progbits,_ZN5InboxC1Ev,comdat
	.align 2
	.weak	_ZN5InboxC1Ev
	.type	_ZN5InboxC1Ev, @function
_ZN5InboxC1Ev:
.LFB1834:
	pushl	%ebp
.LCFI357:
	movl	%esp, %ebp
.LCFI358:
	pushl	%ebx
.LCFI359:
	subl	$68, %esp
.LCFI360:
	movl	8(%ebp), %eax
	movl	%eax, (%esp)
	call	_ZN10UncopyableC2Ev
	leal	-5(%ebp), %eax
	movl	%eax, (%esp)
	call	_ZNSaI10LSP_PacketEC1Ev
	leal	-5(%ebp), %eax
	movl	%eax, 4(%esp)
	leal	-48(%ebp), %eax
	movl	%eax, (%esp)
.LEHB23:
	call	_ZNSt5dequeI10LSP_PacketSaIS0_EEC1ERKS1_
.LEHE23:
	movl	8(%ebp), %edx
	leal	-48(%ebp), %eax
	movl	%eax, 4(%esp)
	movl	%edx, (%esp)
.LEHB24:
	call	_ZNSt5queueI10LSP_PacketSt5dequeIS0_SaIS0_EEEC1ERKS3_
.LEHE24:
	leal	-48(%ebp), %eax
	movl	%eax, (%esp)
	call	_ZNSt5dequeI10LSP_PacketSaIS0_EED1Ev
	leal	-5(%ebp), %eax
	movl	%eax, (%esp)
	call	_ZNSaI10LSP_PacketED1Ev
	jmp	.L359
.L360:
	movl	%eax, -56(%ebp)
.L357:
	movl	-56(%ebp), %ebx
	leal	-48(%ebp), %eax
	movl	%eax, (%esp)
	call	_ZNSt5dequeI10LSP_PacketSaIS0_EED1Ev
	movl	%ebx, -56(%ebp)
	jmp	.L358
.L361:
	movl	%eax, -56(%ebp)
.L358:
	movl	-56(%ebp), %ebx
	leal	-5(%ebp), %eax
	movl	%eax, (%esp)
	call	_ZNSaI10LSP_PacketED1Ev
	movl	%ebx, -56(%ebp)
	movl	-56(%ebp), %eax
	movl	%eax, (%esp)
.LEHB25:
	call	_Unwind_Resume
.LEHE25:
.L359:
	addl	$68, %esp
	popl	%ebx
	popl	%ebp
	ret
.LFE1834:
	.size	_ZN5InboxC1Ev, .-_ZN5InboxC1Ev
	.section	.gcc_except_table
.LLSDA1834:
	.byte	0xff
	.byte	0xff
	.byte	0x1
	.uleb128 .LLSDACSE1834-.LLSDACSB1834
.LLSDACSB1834:
	.uleb128 .LEHB23-.LFB1834
	.uleb128 .LEHE23-.LEHB23
	.uleb128 .L361-.LFB1834
	.uleb128 0x0
	.uleb128 .LEHB24-.LFB1834
	.uleb128 .LEHE24-.LEHB24
	.uleb128 .L360-.LFB1834
	.uleb128 0x0
	.uleb128 .LEHB25-.LFB1834
	.uleb128 .LEHE25-.LEHB25
	.uleb128 0x0
	.uleb128 0x0
.LLSDACSE1834:
	.section	.text._ZN5InboxC1Ev,"axG",@progbits,_ZN5InboxC1Ev,comdat
	.section	.text._ZN3LSPC2Eb,"axG",@progbits,_ZN3LSPC2Eb,comdat
	.align 2
	.weak	_ZN3LSPC2Eb
	.type	_ZN3LSPC2Eb, @function
_ZN3LSPC2Eb:
.LFB1838:
	pushl	%ebp
.LCFI361:
	movl	%esp, %ebp
.LCFI362:
	subl	$24, %esp
.LCFI363:
	movl	12(%ebp), %eax
	movb	%al, -4(%ebp)
	movl	8(%ebp), %eax
	movl	%eax, (%esp)
	call	_ZN10UncopyableC2Ev
	movl	$_ZTV3LSP+8, %edx
	movl	8(%ebp), %eax
	movl	%edx, (%eax)
	movl	8(%ebp), %eax
	addl	$4, %eax
	movl	%eax, (%esp)
	call	_ZN5InboxC1Ev
	movzbl	-4(%ebp), %eax
	movl	8(%ebp), %edx
	addl	$44, %edx
	movl	%eax, 4(%esp)
	movl	%edx, (%esp)
	call	_ZN9ConnectorC1Eb
	leave
	ret
.LFE1838:
	.size	_ZN3LSPC2Eb, .-_ZN3LSPC2Eb
	.section	.text._ZN10LSP_ServerC1Ev,"axG",@progbits,_ZN10LSP_ServerC1Ev,comdat
	.align 2
	.weak	_ZN10LSP_ServerC1Ev
	.type	_ZN10LSP_ServerC1Ev, @function
_ZN10LSP_ServerC1Ev:
.LFB1849:
	pushl	%ebp
.LCFI364:
	movl	%esp, %ebp
.LCFI365:
	subl	$8, %esp
.LCFI366:
	movl	8(%ebp), %eax
	movl	$1, 4(%esp)
	movl	%eax, (%esp)
	call	_ZN3LSPC2Eb
	movl	$_ZTV10LSP_Server+8, %edx
	movl	8(%ebp), %eax
	movl	%edx, (%eax)
	leave
	ret
.LFE1849:
	.size	_ZN10LSP_ServerC1Ev, .-_ZN10LSP_ServerC1Ev
	.section	.text._ZNSt15__copy_backwardILb1ESt26random_access_iterator_tagE8__copy_bIP8ConnInfoEEPT_PKS5_S8_S6_,"axG",@progbits,_ZNSt15__copy_backwardILb1ESt26random_access_iterator_tagE8__copy_bIP8ConnInfoEEPT_PKS5_S8_S6_,comdat
	.align 2
	.weak	_ZNSt15__copy_backwardILb1ESt26random_access_iterator_tagE8__copy_bIP8ConnInfoEEPT_PKS5_S8_S6_
	.type	_ZNSt15__copy_backwardILb1ESt26random_access_iterator_tagE8__copy_bIP8ConnInfoEEPT_PKS5_S8_S6_, @function
_ZNSt15__copy_backwardILb1ESt26random_access_iterator_tagE8__copy_bIP8ConnInfoEEPT_PKS5_S8_S6_:
.LFB2081:
	pushl	%ebp
.LCFI367:
	movl	%esp, %ebp
.LCFI368:
	pushl	%ebx
.LCFI369:
	subl	$36, %esp
.LCFI370:
	movl	12(%ebp), %edx
	movl	8(%ebp), %eax
	movl	%edx, %ecx
	subl	%eax, %ecx
	movl	%ecx, %eax
	sarl	$2, %eax
	movl	%eax, -8(%ebp)
	movl	-8(%ebp), %eax
	leal	0(,%eax,4), %ecx
	movl	-8(%ebp), %eax
	sall	$2, %eax
	movl	%eax, %edx
	movl	16(%ebp), %eax
	movl	%eax, %ebx
	subl	%edx, %ebx
	movl	%ebx, %edx
	movl	%ecx, 8(%esp)
	movl	8(%ebp), %eax
	movl	%eax, 4(%esp)
	movl	%edx, (%esp)
	call	memmove
	movl	-8(%ebp), %eax
	sall	$2, %eax
	movl	%eax, %edx
	movl	16(%ebp), %eax
	subl	%edx, %eax
	addl	$36, %esp
	popl	%ebx
	popl	%ebp
	ret
.LFE2081:
	.size	_ZNSt15__copy_backwardILb1ESt26random_access_iterator_tagE8__copy_bIP8ConnInfoEEPT_PKS5_S8_S6_, .-_ZNSt15__copy_backwardILb1ESt26random_access_iterator_tagE8__copy_bIP8ConnInfoEEPT_PKS5_S8_S6_
	.section	.text._ZSt19__copy_backward_auxIPP8ConnInfoS2_ET0_T_S4_S3_,"axG",@progbits,_ZSt19__copy_backward_auxIPP8ConnInfoS2_ET0_T_S4_S3_,comdat
	.align 2
	.weak	_ZSt19__copy_backward_auxIPP8ConnInfoS2_ET0_T_S4_S3_
	.type	_ZSt19__copy_backward_auxIPP8ConnInfoS2_ET0_T_S4_S3_, @function
_ZSt19__copy_backward_auxIPP8ConnInfoS2_ET0_T_S4_S3_:
.LFB2067:
	pushl	%ebp
.LCFI371:
	movl	%esp, %ebp
.LCFI372:
	subl	$40, %esp
.LCFI373:
	movb	$1, -1(%ebp)
	movl	16(%ebp), %eax
	movl	%eax, 8(%esp)
	movl	12(%ebp), %eax
	movl	%eax, 4(%esp)
	movl	8(%ebp), %eax
	movl	%eax, (%esp)
	call	_ZNSt15__copy_backwardILb1ESt26random_access_iterator_tagE8__copy_bIP8ConnInfoEEPT_PKS5_S8_S6_
	leave
	ret
.LFE2067:
	.size	_ZSt19__copy_backward_auxIPP8ConnInfoS2_ET0_T_S4_S3_, .-_ZSt19__copy_backward_auxIPP8ConnInfoS2_ET0_T_S4_S3_
	.section	.text._ZNSt22__copy_backward_normalILb0ELb0EE10__copy_b_nIPP8ConnInfoS4_EET0_T_S6_S5_,"axG",@progbits,_ZNSt22__copy_backward_normalILb0ELb0EE10__copy_b_nIPP8ConnInfoS4_EET0_T_S6_S5_,comdat
	.align 2
	.weak	_ZNSt22__copy_backward_normalILb0ELb0EE10__copy_b_nIPP8ConnInfoS4_EET0_T_S6_S5_
	.type	_ZNSt22__copy_backward_normalILb0ELb0EE10__copy_b_nIPP8ConnInfoS4_EET0_T_S6_S5_, @function
_ZNSt22__copy_backward_normalILb0ELb0EE10__copy_b_nIPP8ConnInfoS4_EET0_T_S6_S5_:
.LFB2041:
	pushl	%ebp
.LCFI374:
	movl	%esp, %ebp
.LCFI375:
	subl	$24, %esp
.LCFI376:
	movl	16(%ebp), %eax
	movl	%eax, 8(%esp)
	movl	12(%ebp), %eax
	movl	%eax, 4(%esp)
	movl	8(%ebp), %eax
	movl	%eax, (%esp)
	call	_ZSt19__copy_backward_auxIPP8ConnInfoS2_ET0_T_S4_S3_
	leave
	ret
.LFE2041:
	.size	_ZNSt22__copy_backward_normalILb0ELb0EE10__copy_b_nIPP8ConnInfoS4_EET0_T_S6_S5_, .-_ZNSt22__copy_backward_normalILb0ELb0EE10__copy_b_nIPP8ConnInfoS4_EET0_T_S6_S5_
	.section	.text._ZSt13copy_backwardIPP8ConnInfoS2_ET0_T_S4_S3_,"axG",@progbits,_ZSt13copy_backwardIPP8ConnInfoS2_ET0_T_S4_S3_,comdat
	.align 2
	.weak	_ZSt13copy_backwardIPP8ConnInfoS2_ET0_T_S4_S3_
	.type	_ZSt13copy_backwardIPP8ConnInfoS2_ET0_T_S4_S3_, @function
_ZSt13copy_backwardIPP8ConnInfoS2_ET0_T_S4_S3_:
.LFB2015:
	pushl	%ebp
.LCFI377:
	movl	%esp, %ebp
.LCFI378:
	subl	$40, %esp
.LCFI379:
	movb	$0, -1(%ebp)
	movb	$0, -2(%ebp)
	movl	16(%ebp), %eax
	movl	%eax, 8(%esp)
	movl	12(%ebp), %eax
	movl	%eax, 4(%esp)
	movl	8(%ebp), %eax
	movl	%eax, (%esp)
	call	_ZNSt22__copy_backward_normalILb0ELb0EE10__copy_b_nIPP8ConnInfoS4_EET0_T_S6_S5_
	leave
	ret
.LFE2015:
	.size	_ZSt13copy_backwardIPP8ConnInfoS2_ET0_T_S4_S3_, .-_ZSt13copy_backwardIPP8ConnInfoS2_ET0_T_S4_S3_
	.section	.text._ZNSt6__copyILb1ESt26random_access_iterator_tagE4copyIP8ConnInfoEEPT_PKS5_S8_S6_,"axG",@progbits,_ZNSt6__copyILb1ESt26random_access_iterator_tagE4copyIP8ConnInfoEEPT_PKS5_S8_S6_,comdat
	.align 2
	.weak	_ZNSt6__copyILb1ESt26random_access_iterator_tagE4copyIP8ConnInfoEEPT_PKS5_S8_S6_
	.type	_ZNSt6__copyILb1ESt26random_access_iterator_tagE4copyIP8ConnInfoEEPT_PKS5_S8_S6_, @function
_ZNSt6__copyILb1ESt26random_access_iterator_tagE4copyIP8ConnInfoEEPT_PKS5_S8_S6_:
.LFB2091:
	pushl	%ebp
.LCFI380:
	movl	%esp, %ebp
.LCFI381:
	subl	$24, %esp
.LCFI382:
	movl	12(%ebp), %edx
	movl	8(%ebp), %eax
	movl	%edx, %ecx
	subl	%eax, %ecx
	movl	%ecx, %eax
	sarl	$2, %eax
	sall	$2, %eax
	movl	%eax, 8(%esp)
	movl	8(%ebp), %eax
	movl	%eax, 4(%esp)
	movl	16(%ebp), %eax
	movl	%eax, (%esp)
	call	memmove
	movl	12(%ebp), %edx
	movl	8(%ebp), %eax
	movl	%edx, %ecx
	subl	%eax, %ecx
	movl	%ecx, %eax
	sarl	$2, %eax
	sall	$2, %eax
	addl	16(%ebp), %eax
	leave
	ret
.LFE2091:
	.size	_ZNSt6__copyILb1ESt26random_access_iterator_tagE4copyIP8ConnInfoEEPT_PKS5_S8_S6_, .-_ZNSt6__copyILb1ESt26random_access_iterator_tagE4copyIP8ConnInfoEEPT_PKS5_S8_S6_
	.section	.text._ZSt10__copy_auxIPP8ConnInfoS2_ET0_T_S4_S3_,"axG",@progbits,_ZSt10__copy_auxIPP8ConnInfoS2_ET0_T_S4_S3_,comdat
	.align 2
	.weak	_ZSt10__copy_auxIPP8ConnInfoS2_ET0_T_S4_S3_
	.type	_ZSt10__copy_auxIPP8ConnInfoS2_ET0_T_S4_S3_, @function
_ZSt10__copy_auxIPP8ConnInfoS2_ET0_T_S4_S3_:
.LFB2090:
	pushl	%ebp
.LCFI383:
	movl	%esp, %ebp
.LCFI384:
	subl	$40, %esp
.LCFI385:
	movb	$1, -1(%ebp)
	movl	16(%ebp), %eax
	movl	%eax, 8(%esp)
	movl	12(%ebp), %eax
	movl	%eax, 4(%esp)
	movl	8(%ebp), %eax
	movl	%eax, (%esp)
	call	_ZNSt6__copyILb1ESt26random_access_iterator_tagE4copyIP8ConnInfoEEPT_PKS5_S8_S6_
	leave
	ret
.LFE2090:
	.size	_ZSt10__copy_auxIPP8ConnInfoS2_ET0_T_S4_S3_, .-_ZSt10__copy_auxIPP8ConnInfoS2_ET0_T_S4_S3_
	.section	.text._ZNSt13__copy_normalILb0ELb0EE8__copy_nIPP8ConnInfoS4_EET0_T_S6_S5_,"axG",@progbits,_ZNSt13__copy_normalILb0ELb0EE8__copy_nIPP8ConnInfoS4_EET0_T_S6_S5_,comdat
	.align 2
	.weak	_ZNSt13__copy_normalILb0ELb0EE8__copy_nIPP8ConnInfoS4_EET0_T_S6_S5_
	.type	_ZNSt13__copy_normalILb0ELb0EE8__copy_nIPP8ConnInfoS4_EET0_T_S6_S5_, @function
_ZNSt13__copy_normalILb0ELb0EE8__copy_nIPP8ConnInfoS4_EET0_T_S6_S5_:
.LFB2088:
	pushl	%ebp
.LCFI386:
	movl	%esp, %ebp
.LCFI387:
	subl	$24, %esp
.LCFI388:
	movl	16(%ebp), %eax
	movl	%eax, 8(%esp)
	movl	12(%ebp), %eax
	movl	%eax, 4(%esp)
	movl	8(%ebp), %eax
	movl	%eax, (%esp)
	call	_ZSt10__copy_auxIPP8ConnInfoS2_ET0_T_S4_S3_
	leave
	ret
.LFE2088:
	.size	_ZNSt13__copy_normalILb0ELb0EE8__copy_nIPP8ConnInfoS4_EET0_T_S6_S5_, .-_ZNSt13__copy_normalILb0ELb0EE8__copy_nIPP8ConnInfoS4_EET0_T_S6_S5_
	.section	.text._ZSt4copyIPP8ConnInfoS2_ET0_T_S4_S3_,"axG",@progbits,_ZSt4copyIPP8ConnInfoS2_ET0_T_S4_S3_,comdat
	.align 2
	.weak	_ZSt4copyIPP8ConnInfoS2_ET0_T_S4_S3_
	.type	_ZSt4copyIPP8ConnInfoS2_ET0_T_S4_S3_, @function
_ZSt4copyIPP8ConnInfoS2_ET0_T_S4_S3_:
.LFB2082:
	pushl	%ebp
.LCFI389:
	movl	%esp, %ebp
.LCFI390:
	subl	$40, %esp
.LCFI391:
	movb	$0, -1(%ebp)
	movb	$0, -2(%ebp)
	movl	16(%ebp), %eax
	movl	%eax, 8(%esp)
	movl	12(%ebp), %eax
	movl	%eax, 4(%esp)
	movl	8(%ebp), %eax
	movl	%eax, (%esp)
	call	_ZNSt13__copy_normalILb0ELb0EE8__copy_nIPP8ConnInfoS4_EET0_T_S6_S5_
	leave
	ret
.LFE2082:
	.size	_ZSt4copyIPP8ConnInfoS2_ET0_T_S4_S3_, .-_ZSt4copyIPP8ConnInfoS2_ET0_T_S4_S3_
	.section	.text._ZSt24__uninitialized_copy_auxIPP8ConnInfoS2_ET0_T_S4_S3_St11__true_type,"axG",@progbits,_ZSt24__uninitialized_copy_auxIPP8ConnInfoS2_ET0_T_S4_S3_St11__true_type,comdat
	.align 2
	.weak	_ZSt24__uninitialized_copy_auxIPP8ConnInfoS2_ET0_T_S4_S3_St11__true_type
	.type	_ZSt24__uninitialized_copy_auxIPP8ConnInfoS2_ET0_T_S4_S3_St11__true_type, @function
_ZSt24__uninitialized_copy_auxIPP8ConnInfoS2_ET0_T_S4_S3_St11__true_type:
.LFB2068:
	pushl	%ebp
.LCFI392:
	movl	%esp, %ebp
.LCFI393:
	subl	$24, %esp
.LCFI394:
	movl	16(%ebp), %eax
	movl	%eax, 8(%esp)
	movl	12(%ebp), %eax
	movl	%eax, 4(%esp)
	movl	8(%ebp), %eax
	movl	%eax, (%esp)
	call	_ZSt4copyIPP8ConnInfoS2_ET0_T_S4_S3_
	leave
	ret
.LFE2068:
	.size	_ZSt24__uninitialized_copy_auxIPP8ConnInfoS2_ET0_T_S4_S3_St11__true_type, .-_ZSt24__uninitialized_copy_auxIPP8ConnInfoS2_ET0_T_S4_S3_St11__true_type
	.section	.text._ZSt18uninitialized_copyIPP8ConnInfoS2_ET0_T_S4_S3_,"axG",@progbits,_ZSt18uninitialized_copyIPP8ConnInfoS2_ET0_T_S4_S3_,comdat
	.align 2
	.weak	_ZSt18uninitialized_copyIPP8ConnInfoS2_ET0_T_S4_S3_
	.type	_ZSt18uninitialized_copyIPP8ConnInfoS2_ET0_T_S4_S3_, @function
_ZSt18uninitialized_copyIPP8ConnInfoS2_ET0_T_S4_S3_:
.LFB2045:
	pushl	%ebp
.LCFI395:
	movl	%esp, %ebp
.LCFI396:
	subl	$24, %esp
.LCFI397:
	movzbl	-1(%ebp), %eax
	movb	%al, 12(%esp)
	movl	16(%ebp), %eax
	movl	%eax, 8(%esp)
	movl	12(%ebp), %eax
	movl	%eax, 4(%esp)
	movl	8(%ebp), %eax
	movl	%eax, (%esp)
	call	_ZSt24__uninitialized_copy_auxIPP8ConnInfoS2_ET0_T_S4_S3_St11__true_type
	leave
	ret
.LFE2045:
	.size	_ZSt18uninitialized_copyIPP8ConnInfoS2_ET0_T_S4_S3_, .-_ZSt18uninitialized_copyIPP8ConnInfoS2_ET0_T_S4_S3_
	.section	.text._ZSt22__uninitialized_copy_aIPP8ConnInfoS2_S1_ET0_T_S4_S3_SaIT1_E,"axG",@progbits,_ZSt22__uninitialized_copy_aIPP8ConnInfoS2_S1_ET0_T_S4_S3_SaIT1_E,comdat
	.align 2
	.weak	_ZSt22__uninitialized_copy_aIPP8ConnInfoS2_S1_ET0_T_S4_S3_SaIT1_E
	.type	_ZSt22__uninitialized_copy_aIPP8ConnInfoS2_S1_ET0_T_S4_S3_SaIT1_E, @function
_ZSt22__uninitialized_copy_aIPP8ConnInfoS2_S1_ET0_T_S4_S3_SaIT1_E:
.LFB2019:
	pushl	%ebp
.LCFI398:
	movl	%esp, %ebp
.LCFI399:
	subl	$24, %esp
.LCFI400:
	movl	16(%ebp), %eax
	movl	%eax, 8(%esp)
	movl	12(%ebp), %eax
	movl	%eax, 4(%esp)
	movl	8(%ebp), %eax
	movl	%eax, (%esp)
	call	_ZSt18uninitialized_copyIPP8ConnInfoS2_ET0_T_S4_S3_
	leave
	ret
.LFE2019:
	.size	_ZSt22__uninitialized_copy_aIPP8ConnInfoS2_S1_ET0_T_S4_S3_SaIT1_E, .-_ZSt22__uninitialized_copy_aIPP8ConnInfoS2_S1_ET0_T_S4_S3_SaIT1_E
	.section	.rodata
.LC0:
	.string	"vector::_M_insert_aux"
	.section	.text._ZNSt6vectorIP8ConnInfoSaIS1_EE13_M_insert_auxEN9__gnu_cxx17__normal_iteratorIPS1_S3_EERKS1_,"axG",@progbits,_ZNSt6vectorIP8ConnInfoSaIS1_EE13_M_insert_auxEN9__gnu_cxx17__normal_iteratorIPS1_S3_EERKS1_,comdat
	.align 2
	.weak	_ZNSt6vectorIP8ConnInfoSaIS1_EE13_M_insert_auxEN9__gnu_cxx17__normal_iteratorIPS1_S3_EERKS1_
	.type	_ZNSt6vectorIP8ConnInfoSaIS1_EE13_M_insert_auxEN9__gnu_cxx17__normal_iteratorIPS1_S3_EERKS1_, @function
_ZNSt6vectorIP8ConnInfoSaIS1_EE13_M_insert_auxEN9__gnu_cxx17__normal_iteratorIPS1_S3_EERKS1_:
.LFB1994:
	pushl	%ebp
.LCFI401:
	movl	%esp, %ebp
.LCFI402:
	pushl	%esi
.LCFI403:
	pushl	%ebx
.LCFI404:
	subl	$64, %esp
.LCFI405:
	movl	8(%ebp), %eax
	movl	4(%eax), %edx
	movl	8(%ebp), %eax
	movl	8(%eax), %eax
	cmpl	%eax, %edx
	je	.L389
	movl	8(%ebp), %eax
	movl	4(%eax), %eax
	leal	-4(%eax), %edx
	movl	8(%ebp), %eax
	movl	4(%eax), %ecx
	movl	8(%ebp), %eax
	movl	%edx, 8(%esp)
	movl	%ecx, 4(%esp)
	movl	%eax, (%esp)
	call	_ZN9__gnu_cxx13new_allocatorIP8ConnInfoE9constructEPS2_RKS2_
	movl	8(%ebp), %eax
	movl	4(%eax), %eax
	leal	4(%eax), %edx
	movl	8(%ebp), %eax
	movl	%edx, 4(%eax)
	movl	16(%ebp), %eax
	movl	(%eax), %eax
	movl	%eax, -16(%ebp)
	movl	8(%ebp), %eax
	movl	4(%eax), %eax
	leal	-4(%eax), %ebx
	movl	8(%ebp), %eax
	movl	4(%eax), %eax
	leal	-8(%eax), %esi
	leal	12(%ebp), %eax
	movl	%eax, (%esp)
	call	_ZNK9__gnu_cxx17__normal_iteratorIPP8ConnInfoSt6vectorIS2_SaIS2_EEE4baseEv
	movl	(%eax), %eax
	movl	%ebx, 8(%esp)
	movl	%esi, 4(%esp)
	movl	%eax, (%esp)
	call	_ZSt13copy_backwardIPP8ConnInfoS2_ET0_T_S4_S3_
	leal	12(%ebp), %eax
	movl	%eax, (%esp)
	call	_ZNK9__gnu_cxx17__normal_iteratorIPP8ConnInfoSt6vectorIS2_SaIS2_EEEdeEv
	movl	%eax, %edx
	movl	-16(%ebp), %eax
	movl	%eax, (%edx)
	jmp	.L399
.L389:
	movl	8(%ebp), %eax
	movl	%eax, (%esp)
	call	_ZNKSt6vectorIP8ConnInfoSaIS1_EE4sizeEv
	movl	%eax, -20(%ebp)
	movl	8(%ebp), %eax
	movl	%eax, (%esp)
	call	_ZNKSt6vectorIP8ConnInfoSaIS1_EE8max_sizeEv
	cmpl	-20(%ebp), %eax
	sete	%al
	testb	%al, %al
	je	.L392
	movl	$.LC0, (%esp)
	call	_ZSt20__throw_length_errorPKc
.L392:
	cmpl	$0, -20(%ebp)
	je	.L394
	movl	-20(%ebp), %eax
	addl	%eax, %eax
	movl	%eax, -44(%ebp)
	jmp	.L396
.L394:
	movl	$1, -44(%ebp)
.L396:
	movl	-44(%ebp), %eax
	movl	%eax, -24(%ebp)
	movl	-24(%ebp), %eax
	cmpl	-20(%ebp), %eax
	jae	.L397
	movl	8(%ebp), %eax
	movl	%eax, (%esp)
	call	_ZNKSt6vectorIP8ConnInfoSaIS1_EE8max_sizeEv
	movl	%eax, -24(%ebp)
.L397:
	movl	8(%ebp), %edx
	movl	-24(%ebp), %eax
	movl	%eax, 4(%esp)
	movl	%edx, (%esp)
	call	_ZNSt12_Vector_baseIP8ConnInfoSaIS1_EE11_M_allocateEj
	movl	%eax, -28(%ebp)
	movl	-28(%ebp), %eax
	movl	%eax, -32(%ebp)
	movl	8(%ebp), %eax
	movl	%eax, (%esp)
	call	_ZNSt12_Vector_baseIP8ConnInfoSaIS1_EE19_M_get_Tp_allocatorEv
	movl	%eax, 4(%esp)
	leal	-9(%ebp), %eax
	movl	%eax, (%esp)
	call	_ZNSaIP8ConnInfoEC1ERKS1_
	leal	12(%ebp), %eax
	movl	%eax, (%esp)
	call	_ZNK9__gnu_cxx17__normal_iteratorIPP8ConnInfoSt6vectorIS2_SaIS2_EEE4baseEv
	movl	(%eax), %edx
	movl	8(%ebp), %eax
	movl	(%eax), %ecx
	leal	-9(%ebp), %eax
	movl	%eax, 12(%esp)
	movl	-28(%ebp), %eax
	movl	%eax, 8(%esp)
	movl	%edx, 4(%esp)
	movl	%ecx, (%esp)
	call	_ZSt22__uninitialized_copy_aIPP8ConnInfoS2_S1_ET0_T_S4_S3_SaIT1_E
	movl	%eax, -32(%ebp)
	leal	-9(%ebp), %eax
	movl	%eax, (%esp)
	call	_ZNSaIP8ConnInfoED1Ev
	movl	8(%ebp), %eax
	movl	%eax, %edx
	movl	16(%ebp), %eax
	movl	%eax, 8(%esp)
	movl	-32(%ebp), %eax
	movl	%eax, 4(%esp)
	movl	%edx, (%esp)
	call	_ZN9__gnu_cxx13new_allocatorIP8ConnInfoE9constructEPS2_RKS2_
	addl	$4, -32(%ebp)
	movl	8(%ebp), %eax
	movl	%eax, (%esp)
	call	_ZNSt12_Vector_baseIP8ConnInfoSaIS1_EE19_M_get_Tp_allocatorEv
	movl	%eax, 4(%esp)
	leal	-10(%ebp), %eax
	movl	%eax, (%esp)
	call	_ZNSaIP8ConnInfoEC1ERKS1_
	movl	8(%ebp), %eax
	movl	4(%eax), %ebx
	leal	12(%ebp), %eax
	movl	%eax, (%esp)
	call	_ZNK9__gnu_cxx17__normal_iteratorIPP8ConnInfoSt6vectorIS2_SaIS2_EEE4baseEv
	movl	(%eax), %edx
	leal	-10(%ebp), %eax
	movl	%eax, 12(%esp)
	movl	-32(%ebp), %eax
	movl	%eax, 8(%esp)
	movl	%ebx, 4(%esp)
	movl	%edx, (%esp)
	call	_ZSt22__uninitialized_copy_aIPP8ConnInfoS2_S1_ET0_T_S4_S3_SaIT1_E
	movl	%eax, -32(%ebp)
	leal	-10(%ebp), %eax
	movl	%eax, (%esp)
	call	_ZNSaIP8ConnInfoED1Ev
	movl	8(%ebp), %eax
	movl	%eax, (%esp)
	call	_ZNSt12_Vector_baseIP8ConnInfoSaIS1_EE19_M_get_Tp_allocatorEv
	movl	%eax, 4(%esp)
	leal	-12(%ebp), %eax
	movl	%eax, (%esp)
	call	_ZNSaIP8ConnInfoEC1ERKS1_
	movl	8(%ebp), %eax
	movl	4(%eax), %edx
	movl	8(%ebp), %eax
	movl	(%eax), %ecx
	leal	-12(%ebp), %eax
	movl	%eax, 8(%esp)
	movl	%edx, 4(%esp)
	movl	%ecx, (%esp)
	call	_ZSt8_DestroyIPP8ConnInfoS1_EvT_S3_SaIT0_E
	leal	-12(%ebp), %eax
	movl	%eax, (%esp)
	call	_ZNSaIP8ConnInfoED1Ev
	movl	8(%ebp), %eax
	movl	8(%eax), %eax
	movl	%eax, %edx
	movl	8(%ebp), %eax
	movl	(%eax), %eax
	movl	%edx, %ecx
	subl	%eax, %ecx
	movl	%ecx, %eax
	sarl	$2, %eax
	movl	%eax, %ecx
	movl	8(%ebp), %eax
	movl	(%eax), %eax
	movl	8(%ebp), %edx
	movl	%ecx, 8(%esp)
	movl	%eax, 4(%esp)
	movl	%edx, (%esp)
	call	_ZNSt12_Vector_baseIP8ConnInfoSaIS1_EE13_M_deallocateEPS1_j
	movl	8(%ebp), %edx
	movl	-28(%ebp), %eax
	movl	%eax, (%edx)
	movl	8(%ebp), %edx
	movl	-32(%ebp), %eax
	movl	%eax, 4(%edx)
	movl	-24(%ebp), %eax
	sall	$2, %eax
	movl	%eax, %edx
	addl	-28(%ebp), %edx
	movl	8(%ebp), %eax
	movl	%edx, 8(%eax)
.L399:
	addl	$64, %esp
	popl	%ebx
	popl	%esi
	popl	%ebp
	ret
.LFE1994:
	.size	_ZNSt6vectorIP8ConnInfoSaIS1_EE13_M_insert_auxEN9__gnu_cxx17__normal_iteratorIPS1_S3_EERKS1_, .-_ZNSt6vectorIP8ConnInfoSaIS1_EE13_M_insert_auxEN9__gnu_cxx17__normal_iteratorIPS1_S3_EERKS1_
	.section	.text._ZNSt6vectorIP8ConnInfoSaIS1_EE9push_backERKS1_,"axG",@progbits,_ZNSt6vectorIP8ConnInfoSaIS1_EE9push_backERKS1_,comdat
	.align 2
	.weak	_ZNSt6vectorIP8ConnInfoSaIS1_EE9push_backERKS1_
	.type	_ZNSt6vectorIP8ConnInfoSaIS1_EE9push_backERKS1_, @function
_ZNSt6vectorIP8ConnInfoSaIS1_EE9push_backERKS1_:
.LFB1925:
	pushl	%ebp
.LCFI406:
	movl	%esp, %ebp
.LCFI407:
	subl	$40, %esp
.LCFI408:
	movl	8(%ebp), %eax
	movl	4(%eax), %edx
	movl	8(%ebp), %eax
	movl	8(%eax), %eax
	cmpl	%eax, %edx
	je	.L401
	movl	8(%ebp), %eax
	movl	4(%eax), %edx
	movl	8(%ebp), %eax
	movl	%eax, %ecx
	movl	12(%ebp), %eax
	movl	%eax, 8(%esp)
	movl	%edx, 4(%esp)
	movl	%ecx, (%esp)
	call	_ZN9__gnu_cxx13new_allocatorIP8ConnInfoE9constructEPS2_RKS2_
	movl	8(%ebp), %eax
	movl	4(%eax), %eax
	leal	4(%eax), %edx
	movl	8(%ebp), %eax
	movl	%edx, 4(%eax)
	jmp	.L404
.L401:
	leal	-4(%ebp), %edx
	movl	8(%ebp), %eax
	movl	%eax, 4(%esp)
	movl	%edx, (%esp)
	call	_ZNSt6vectorIP8ConnInfoSaIS1_EE3endEv
	subl	$4, %esp
	movl	12(%ebp), %eax
	movl	%eax, 8(%esp)
	movl	-4(%ebp), %eax
	movl	%eax, 4(%esp)
	movl	8(%ebp), %eax
	movl	%eax, (%esp)
	call	_ZNSt6vectorIP8ConnInfoSaIS1_EE13_M_insert_auxEN9__gnu_cxx17__normal_iteratorIPS1_S3_EERKS1_
.L404:
	leave
	ret
.LFE1925:
	.size	_ZNSt6vectorIP8ConnInfoSaIS1_EE9push_backERKS1_, .-_ZNSt6vectorIP8ConnInfoSaIS1_EE9push_backERKS1_
	.section	.rodata
.LC1:
	.string	"Host 1"
.LC2:
	.string	"Host2"
.LC3:
	.string	"Hello"
	.text
	.align 2
.globl _Z6Senderv
	.type	_Z6Senderv, @function
_Z6Senderv:
.LFB1864:
	pushl	%ebp
.LCFI409:
	movl	%esp, %ebp
.LCFI410:
	pushl	%ebx
.LCFI411:
	subl	$228, %esp
.LCFI412:
	leal	-5(%ebp), %eax
	movl	%eax, (%esp)
	call	_ZNSaIP8ConnInfoEC1Ev
	leal	-5(%ebp), %eax
	movl	%eax, 4(%esp)
	leal	-44(%ebp), %eax
	movl	%eax, (%esp)
	call	_ZNSt6vectorIP8ConnInfoSaIS1_EEC1ERKS2_
	leal	-5(%ebp), %eax
	movl	%eax, (%esp)
	call	_ZNSaIP8ConnInfoED1Ev
	leal	-6(%ebp), %eax
	movl	%eax, (%esp)
	call	_ZNSaIcEC1Ev
	leal	-6(%ebp), %eax
	movl	%eax, 8(%esp)
	movl	$.LC1, 4(%esp)
	leal	-12(%ebp), %eax
	movl	%eax, (%esp)
.LEHB26:
	call	_ZNSsC1EPKcRKSaIcE
.LEHE26:
	leal	-12(%ebp), %eax
	movl	%eax, 12(%esp)
	movl	$12, 8(%esp)
	movl	$0, 4(%esp)
	leal	-116(%ebp), %eax
	movl	%eax, (%esp)
.LEHB27:
	call	_ZN8ConnInfoC1EiiSs
.LEHE27:
	leal	-12(%ebp), %eax
	movl	%eax, (%esp)
.LEHB28:
	call	_ZNSsD1Ev
.LEHE28:
	jmp	.L406
.L437:
	movl	%eax, -204(%ebp)
.L407:
	movl	-204(%ebp), %ebx
	leal	-12(%ebp), %eax
	movl	%eax, (%esp)
	call	_ZNSsD1Ev
	movl	%ebx, -204(%ebp)
	jmp	.L409
.L406:
	leal	-6(%ebp), %eax
	movl	%eax, (%esp)
	call	_ZNSaIcED1Ev
	leal	-116(%ebp), %eax
	movl	%eax, -16(%ebp)
	leal	-16(%ebp), %eax
	movl	%eax, 4(%esp)
	leal	-44(%ebp), %eax
	movl	%eax, (%esp)
.LEHB29:
	call	_ZNSt6vectorIP8ConnInfoSaIS1_EE9push_backERKS1_
.LEHE29:
	jmp	.L408
.L438:
	movl	%eax, -204(%ebp)
.L409:
	movl	-204(%ebp), %ebx
	leal	-6(%ebp), %eax
	movl	%eax, (%esp)
	call	_ZNSaIcED1Ev
	movl	%ebx, -204(%ebp)
	jmp	.L431
.L408:
	leal	-7(%ebp), %eax
	movl	%eax, (%esp)
	call	_ZNSaIcEC1Ev
	leal	-7(%ebp), %eax
	movl	%eax, 8(%esp)
	movl	$.LC2, 4(%esp)
	leal	-20(%ebp), %eax
	movl	%eax, (%esp)
.LEHB30:
	call	_ZNSsC1EPKcRKSaIcE
.LEHE30:
	leal	-20(%ebp), %eax
	movl	%eax, 12(%esp)
	movl	$1, 8(%esp)
	movl	$1, 4(%esp)
	leal	-188(%ebp), %eax
	movl	%eax, (%esp)
.LEHB31:
	call	_ZN8ConnInfoC1EiiSs
.LEHE31:
	leal	-20(%ebp), %eax
	movl	%eax, (%esp)
.LEHB32:
	call	_ZNSsD1Ev
.LEHE32:
	jmp	.L410
.L434:
	movl	%eax, -204(%ebp)
.L411:
	movl	-204(%ebp), %ebx
	leal	-20(%ebp), %eax
	movl	%eax, (%esp)
	call	_ZNSsD1Ev
	movl	%ebx, -204(%ebp)
	jmp	.L413
.L410:
	leal	-7(%ebp), %eax
	movl	%eax, (%esp)
	call	_ZNSaIcED1Ev
	leal	-188(%ebp), %eax
	movl	%eax, -24(%ebp)
	leal	-24(%ebp), %eax
	movl	%eax, 4(%esp)
	leal	-44(%ebp), %eax
	movl	%eax, (%esp)
.LEHB33:
	call	_ZNSt6vectorIP8ConnInfoSaIS1_EE9push_backERKS1_
	jmp	.L412
.L435:
	movl	%eax, -204(%ebp)
.L413:
	movl	-204(%ebp), %ebx
	leal	-7(%ebp), %eax
	movl	%eax, (%esp)
	call	_ZNSaIcED1Ev
	movl	%ebx, -204(%ebp)
	jmp	.L430
.L412:
	movl	$0, -28(%ebp)
	jmp	.L414
.L415:
	movl	$.LC3, %ebx
	movl	-28(%ebp), %eax
	movl	%eax, 4(%esp)
	leal	-44(%ebp), %eax
	movl	%eax, (%esp)
	call	_ZNSt6vectorIP8ConnInfoSaIS1_EEixEj
	movl	(%eax), %eax
	movl	%ebx, 12(%esp)
	movl	$0, 8(%esp)
	movl	$0, 4(%esp)
	movl	%eax, (%esp)
	call	_ZN8ConnInfo9addPacketEijPh
.LEHE33:
	cmpl	$0, -28(%ebp)
	je	.L416
	movl	-28(%ebp), %eax
	movl	%eax, 4(%esp)
	leal	-44(%ebp), %eax
	movl	%eax, (%esp)
	call	_ZNSt6vectorIP8ConnInfoSaIS1_EEixEj
	movl	(%eax), %eax
	movb	$1, 29(%eax)
.L416:
	addl	$1, -28(%ebp)
.L414:
	movl	-28(%ebp), %ebx
	leal	-44(%ebp), %eax
	movl	%eax, (%esp)
	call	_ZNKSt6vectorIP8ConnInfoSaIS1_EE4sizeEv
	cmpl	%eax, %ebx
	setb	%al
	testb	%al, %al
	jne	.L415
	movl	$0, -32(%ebp)
	jmp	.L419
.L420:
	movl	-32(%ebp), %eax
	movl	%eax, 4(%esp)
	leal	-44(%ebp), %eax
	movl	%eax, (%esp)
	call	_ZNSt6vectorIP8ConnInfoSaIS1_EEixEj
	movl	(%eax), %eax
	movzbl	29(%eax), %eax
	xorl	$1, %eax
	xorl	$1, %eax
	testb	%al, %al
	jne	.L421
	movl	-32(%ebp), %eax
	movl	%eax, 4(%esp)
	leal	-44(%ebp), %eax
	movl	%eax, (%esp)
	call	_ZNSt6vectorIP8ConnInfoSaIS1_EEixEj
	movl	(%eax), %eax
	addl	$32, %eax
	movl	%eax, (%esp)
	call	_ZNKSt5queueI10LSP_PacketSt5dequeIS0_SaIS0_EEE4sizeEv
	testl	%eax, %eax
	je	.L421
	movb	$1, -197(%ebp)
	jmp	.L424
.L421:
	movb	$0, -197(%ebp)
.L424:
	movzbl	-197(%ebp), %eax
	testb	%al, %al
	jne	.L425
	addl	$1, -32(%ebp)
.L419:
	movl	-32(%ebp), %ebx
	leal	-44(%ebp), %eax
	movl	%eax, (%esp)
	call	_ZNKSt6vectorIP8ConnInfoSaIS1_EE4sizeEv
	cmpl	%eax, %ebx
	setb	%al
	testb	%al, %al
	jne	.L420
.L425:
	leal	-188(%ebp), %eax
	movl	%eax, (%esp)
.LEHB34:
	call	_ZN8ConnInfoD1Ev
.LEHE34:
	jmp	.L427
.L433:
	movl	%eax, -204(%ebp)
.L428:
	movl	-204(%ebp), %ebx
	leal	-188(%ebp), %eax
	movl	%eax, (%esp)
	call	_ZN8ConnInfoD1Ev
	movl	%ebx, -204(%ebp)
	jmp	.L430
.L427:
	leal	-116(%ebp), %eax
	movl	%eax, (%esp)
.LEHB35:
	call	_ZN8ConnInfoD1Ev
.LEHE35:
	jmp	.L429
.L436:
	movl	%eax, -204(%ebp)
.L430:
	movl	-204(%ebp), %ebx
	leal	-116(%ebp), %eax
	movl	%eax, (%esp)
	call	_ZN8ConnInfoD1Ev
	movl	%ebx, -204(%ebp)
	jmp	.L431
.L429:
	leal	-44(%ebp), %eax
	movl	%eax, (%esp)
	call	_ZNSt6vectorIP8ConnInfoSaIS1_EED1Ev
	jmp	.L432
.L439:
	movl	%eax, -204(%ebp)
.L431:
	movl	-204(%ebp), %ebx
	leal	-44(%ebp), %eax
	movl	%eax, (%esp)
	call	_ZNSt6vectorIP8ConnInfoSaIS1_EED1Ev
	movl	%ebx, -204(%ebp)
	movl	-204(%ebp), %eax
	movl	%eax, (%esp)
.LEHB36:
	call	_Unwind_Resume
.LEHE36:
.L432:
	addl	$228, %esp
	popl	%ebx
	popl	%ebp
	ret
.LFE1864:
	.size	_Z6Senderv, .-_Z6Senderv
	.section	.gcc_except_table
.LLSDA1864:
	.byte	0xff
	.byte	0xff
	.byte	0x1
	.uleb128 .LLSDACSE1864-.LLSDACSB1864
.LLSDACSB1864:
	.uleb128 .LEHB26-.LFB1864
	.uleb128 .LEHE26-.LEHB26
	.uleb128 .L438-.LFB1864
	.uleb128 0x0
	.uleb128 .LEHB27-.LFB1864
	.uleb128 .LEHE27-.LEHB27
	.uleb128 .L437-.LFB1864
	.uleb128 0x0
	.uleb128 .LEHB28-.LFB1864
	.uleb128 .LEHE28-.LEHB28
	.uleb128 .L438-.LFB1864
	.uleb128 0x0
	.uleb128 .LEHB29-.LFB1864
	.uleb128 .LEHE29-.LEHB29
	.uleb128 .L436-.LFB1864
	.uleb128 0x0
	.uleb128 .LEHB30-.LFB1864
	.uleb128 .LEHE30-.LEHB30
	.uleb128 .L435-.LFB1864
	.uleb128 0x0
	.uleb128 .LEHB31-.LFB1864
	.uleb128 .LEHE31-.LEHB31
	.uleb128 .L434-.LFB1864
	.uleb128 0x0
	.uleb128 .LEHB32-.LFB1864
	.uleb128 .LEHE32-.LEHB32
	.uleb128 .L435-.LFB1864
	.uleb128 0x0
	.uleb128 .LEHB33-.LFB1864
	.uleb128 .LEHE33-.LEHB33
	.uleb128 .L433-.LFB1864
	.uleb128 0x0
	.uleb128 .LEHB34-.LFB1864
	.uleb128 .LEHE34-.LEHB34
	.uleb128 .L436-.LFB1864
	.uleb128 0x0
	.uleb128 .LEHB35-.LFB1864
	.uleb128 .LEHE35-.LEHB35
	.uleb128 .L439-.LFB1864
	.uleb128 0x0
	.uleb128 .LEHB36-.LFB1864
	.uleb128 .LEHE36-.LEHB36
	.uleb128 0x0
	.uleb128 0x0
.LLSDACSE1864:
	.text
	.align 2
.globl main
	.type	main, @function
main:
.LFB1868:
	leal	4(%esp), %ecx
.LCFI413:
	andl	$-16, %esp
	pushl	-4(%ecx)
.LCFI414:
	pushl	%ebp
.LCFI415:
	movl	%esp, %ebp
.LCFI416:
	pushl	%ecx
.LCFI417:
	subl	$4, %esp
.LCFI418:
	call	_Z6Senderv
	movl	$0, %eax
	addl	$4, %esp
	popl	%ecx
	popl	%ebp
	leal	-4(%ecx), %esp
	ret
.LFE1868:
	.size	main, .-main
	.section	.text._ZN9ConnectorD1Ev,"axG",@progbits,_ZN9ConnectorD1Ev,comdat
	.align 2
	.weak	_ZN9ConnectorD1Ev
	.type	_ZN9ConnectorD1Ev, @function
_ZN9ConnectorD1Ev:
.LFB1803:
	pushl	%ebp
.LCFI419:
	movl	%esp, %ebp
.LCFI420:
	subl	$8, %esp
.LCFI421:
	movl	$_ZTV9Connector+8, %edx
	movl	8(%ebp), %eax
	movl	%edx, (%eax)
	movl	8(%ebp), %eax
	movl	8(%eax), %eax
	testl	%eax, %eax
	je	.L443
	movl	8(%ebp), %eax
	movl	8(%eax), %eax
	movl	%eax, (%esp)
	call	freeaddrinfo
.L443:
	movl	8(%ebp), %eax
	movl	16(%eax), %eax
	cmpl	$-1, %eax
	je	.L445
	movl	8(%ebp), %eax
	movl	16(%eax), %eax
	movl	%eax, (%esp)
	call	close
.L445:
	movl	$0, %eax
	testb	%al, %al
	je	.L449
	movl	8(%ebp), %eax
	movl	%eax, (%esp)
	call	_ZdlPv
.L449:
	leave
	ret
.LFE1803:
	.size	_ZN9ConnectorD1Ev, .-_ZN9ConnectorD1Ev
	.section	.rodata
.LC4:
	.string	"pthread_join"
.LC5:
	.string	"Joined Listener Thread."
	.section	.text._ZN3LSPD2Ev,"axG",@progbits,_ZN3LSPD2Ev,comdat
	.align 2
	.weak	_ZN3LSPD2Ev
	.type	_ZN3LSPD2Ev, @function
_ZN3LSPD2Ev:
.LFB1844:
	pushl	%ebp
.LCFI422:
	movl	%esp, %ebp
.LCFI423:
	pushl	%ebx
.LCFI424:
	subl	$36, %esp
.LCFI425:
	movl	$_ZTV3LSP+8, %edx
	movl	8(%ebp), %eax
	movl	%edx, (%eax)
	movl	8(%ebp), %eax
	movl	100(%eax), %eax
	movl	$0, 4(%esp)
	movl	%eax, (%esp)
.LEHB37:
	call	pthread_join
	testl	%eax, %eax
	setne	%al
	testb	%al, %al
	je	.L451
	movl	$.LC4, (%esp)
	call	_Z5ErrorPKcz
.L451:
	movl	$.LC5, (%esp)
	call	puts
.LEHE37:
	movl	8(%ebp), %eax
	addl	$44, %eax
	movl	%eax, -12(%ebp)
	movl	-12(%ebp), %eax
	movl	%eax, (%esp)
.LEHB38:
	call	_ZN9ConnectorD1Ev
.LEHE38:
	jmp	.L453
.L460:
	movl	%eax, -16(%ebp)
.L454:
	movl	-16(%ebp), %ebx
	movl	8(%ebp), %eax
	addl	$44, %eax
	movl	%eax, -12(%ebp)
	movl	-12(%ebp), %eax
	movl	%eax, (%esp)
	call	_ZN9ConnectorD1Ev
	movl	%ebx, -16(%ebp)
	jmp	.L456
.L453:
	movl	8(%ebp), %eax
	addl	$4, %eax
	movl	%eax, -8(%ebp)
	movl	-8(%ebp), %eax
	movl	%eax, (%esp)
	call	_ZN5InboxD1Ev
	jmp	.L455
.L461:
	movl	%eax, -16(%ebp)
.L456:
	movl	-16(%ebp), %ebx
	movl	8(%ebp), %eax
	addl	$4, %eax
	movl	%eax, -8(%ebp)
	movl	-8(%ebp), %eax
	movl	%eax, (%esp)
	call	_ZN5InboxD1Ev
	movl	%ebx, -16(%ebp)
	movl	-16(%ebp), %eax
	movl	%eax, (%esp)
.LEHB39:
	call	_Unwind_Resume
.LEHE39:
.L455:
	movl	$0, %eax
	testb	%al, %al
	je	.L459
	movl	8(%ebp), %eax
	movl	%eax, (%esp)
	call	_ZdlPv
.L459:
	addl	$36, %esp
	popl	%ebx
	popl	%ebp
	ret
.LFE1844:
	.size	_ZN3LSPD2Ev, .-_ZN3LSPD2Ev
	.section	.gcc_except_table
.LLSDA1844:
	.byte	0xff
	.byte	0xff
	.byte	0x1
	.uleb128 .LLSDACSE1844-.LLSDACSB1844
.LLSDACSB1844:
	.uleb128 .LEHB37-.LFB1844
	.uleb128 .LEHE37-.LEHB37
	.uleb128 .L460-.LFB1844
	.uleb128 0x0
	.uleb128 .LEHB38-.LFB1844
	.uleb128 .LEHE38-.LEHB38
	.uleb128 .L461-.LFB1844
	.uleb128 0x0
	.uleb128 .LEHB39-.LFB1844
	.uleb128 .LEHE39-.LEHB39
	.uleb128 0x0
	.uleb128 0x0
.LLSDACSE1844:
	.section	.text._ZN3LSPD2Ev,"axG",@progbits,_ZN3LSPD2Ev,comdat
	.section	.text._ZN10LSP_ServerD0Ev,"axG",@progbits,_ZN10LSP_ServerD0Ev,comdat
	.align 2
	.weak	_ZN10LSP_ServerD0Ev
	.type	_ZN10LSP_ServerD0Ev, @function
_ZN10LSP_ServerD0Ev:
.LFB1854:
	pushl	%ebp
.LCFI426:
	movl	%esp, %ebp
.LCFI427:
	subl	$8, %esp
.LCFI428:
	movl	$_ZTV10LSP_Server+8, %edx
	movl	8(%ebp), %eax
	movl	%edx, (%eax)
	movl	8(%ebp), %eax
	movl	%eax, (%esp)
	call	_ZN3LSPD2Ev
	movl	$1, %eax
	testb	%al, %al
	je	.L466
	movl	8(%ebp), %eax
	movl	%eax, (%esp)
	call	_ZdlPv
.L466:
	leave
	ret
.LFE1854:
	.size	_ZN10LSP_ServerD0Ev, .-_ZN10LSP_ServerD0Ev
	.section	.text._ZN10LSP_ServerD1Ev,"axG",@progbits,_ZN10LSP_ServerD1Ev,comdat
	.align 2
	.weak	_ZN10LSP_ServerD1Ev
	.type	_ZN10LSP_ServerD1Ev, @function
_ZN10LSP_ServerD1Ev:
.LFB1853:
	pushl	%ebp
.LCFI429:
	movl	%esp, %ebp
.LCFI430:
	subl	$8, %esp
.LCFI431:
	movl	$_ZTV10LSP_Server+8, %edx
	movl	8(%ebp), %eax
	movl	%edx, (%eax)
	movl	8(%ebp), %eax
	movl	%eax, (%esp)
	call	_ZN3LSPD2Ev
	movl	$0, %eax
	testb	%al, %al
	je	.L471
	movl	8(%ebp), %eax
	movl	%eax, (%esp)
	call	_ZdlPv
.L471:
	leave
	ret
.LFE1853:
	.size	_ZN10LSP_ServerD1Ev, .-_ZN10LSP_ServerD1Ev
	.section	.text._ZN3LSPD0Ev,"axG",@progbits,_ZN3LSPD0Ev,comdat
	.align 2
	.weak	_ZN3LSPD0Ev
	.type	_ZN3LSPD0Ev, @function
_ZN3LSPD0Ev:
.LFB1846:
	pushl	%ebp
.LCFI432:
	movl	%esp, %ebp
.LCFI433:
	pushl	%ebx
.LCFI434:
	subl	$36, %esp
.LCFI435:
	movl	$_ZTV3LSP+8, %edx
	movl	8(%ebp), %eax
	movl	%edx, (%eax)
	movl	8(%ebp), %eax
	movl	100(%eax), %eax
	movl	$0, 4(%esp)
	movl	%eax, (%esp)
.LEHB40:
	call	pthread_join
	testl	%eax, %eax
	setne	%al
	testb	%al, %al
	je	.L473
	movl	$.LC4, (%esp)
	call	_Z5ErrorPKcz
.L473:
	movl	$.LC5, (%esp)
	call	puts
.LEHE40:
	movl	8(%ebp), %eax
	addl	$44, %eax
	movl	%eax, -12(%ebp)
	movl	-12(%ebp), %eax
	movl	%eax, (%esp)
.LEHB41:
	call	_ZN9ConnectorD1Ev
.LEHE41:
	jmp	.L475
.L482:
	movl	%eax, -16(%ebp)
.L476:
	movl	-16(%ebp), %ebx
	movl	8(%ebp), %eax
	addl	$44, %eax
	movl	%eax, -12(%ebp)
	movl	-12(%ebp), %eax
	movl	%eax, (%esp)
	call	_ZN9ConnectorD1Ev
	movl	%ebx, -16(%ebp)
	jmp	.L478
.L475:
	movl	8(%ebp), %eax
	addl	$4, %eax
	movl	%eax, -8(%ebp)
	movl	-8(%ebp), %eax
	movl	%eax, (%esp)
	call	_ZN5InboxD1Ev
	jmp	.L477
.L483:
	movl	%eax, -16(%ebp)
.L478:
	movl	-16(%ebp), %ebx
	movl	8(%ebp), %eax
	addl	$4, %eax
	movl	%eax, -8(%ebp)
	movl	-8(%ebp), %eax
	movl	%eax, (%esp)
	call	_ZN5InboxD1Ev
	movl	%ebx, -16(%ebp)
	movl	-16(%ebp), %eax
	movl	%eax, (%esp)
.LEHB42:
	call	_Unwind_Resume
.LEHE42:
.L477:
	movl	$1, %eax
	testb	%al, %al
	je	.L481
	movl	8(%ebp), %eax
	movl	%eax, (%esp)
	call	_ZdlPv
.L481:
	addl	$36, %esp
	popl	%ebx
	popl	%ebp
	ret
.LFE1846:
	.size	_ZN3LSPD0Ev, .-_ZN3LSPD0Ev
	.section	.gcc_except_table
.LLSDA1846:
	.byte	0xff
	.byte	0xff
	.byte	0x1
	.uleb128 .LLSDACSE1846-.LLSDACSB1846
.LLSDACSB1846:
	.uleb128 .LEHB40-.LFB1846
	.uleb128 .LEHE40-.LEHB40
	.uleb128 .L482-.LFB1846
	.uleb128 0x0
	.uleb128 .LEHB41-.LFB1846
	.uleb128 .LEHE41-.LEHB41
	.uleb128 .L483-.LFB1846
	.uleb128 0x0
	.uleb128 .LEHB42-.LFB1846
	.uleb128 .LEHE42-.LEHB42
	.uleb128 0x0
	.uleb128 0x0
.LLSDACSE1846:
	.section	.text._ZN3LSPD0Ev,"axG",@progbits,_ZN3LSPD0Ev,comdat
	.section	.text._ZN3LSPD1Ev,"axG",@progbits,_ZN3LSPD1Ev,comdat
	.align 2
	.weak	_ZN3LSPD1Ev
	.type	_ZN3LSPD1Ev, @function
_ZN3LSPD1Ev:
.LFB1845:
	pushl	%ebp
.LCFI436:
	movl	%esp, %ebp
.LCFI437:
	pushl	%ebx
.LCFI438:
	subl	$36, %esp
.LCFI439:
	movl	$_ZTV3LSP+8, %edx
	movl	8(%ebp), %eax
	movl	%edx, (%eax)
	movl	8(%ebp), %eax
	movl	100(%eax), %eax
	movl	$0, 4(%esp)
	movl	%eax, (%esp)
.LEHB43:
	call	pthread_join
	testl	%eax, %eax
	setne	%al
	testb	%al, %al
	je	.L485
	movl	$.LC4, (%esp)
	call	_Z5ErrorPKcz
.L485:
	movl	$.LC5, (%esp)
	call	puts
.LEHE43:
	movl	8(%ebp), %eax
	addl	$44, %eax
	movl	%eax, -12(%ebp)
	movl	-12(%ebp), %eax
	movl	%eax, (%esp)
.LEHB44:
	call	_ZN9ConnectorD1Ev
.LEHE44:
	jmp	.L487
.L494:
	movl	%eax, -16(%ebp)
.L488:
	movl	-16(%ebp), %ebx
	movl	8(%ebp), %eax
	addl	$44, %eax
	movl	%eax, -12(%ebp)
	movl	-12(%ebp), %eax
	movl	%eax, (%esp)
	call	_ZN9ConnectorD1Ev
	movl	%ebx, -16(%ebp)
	jmp	.L490
.L487:
	movl	8(%ebp), %eax
	addl	$4, %eax
	movl	%eax, -8(%ebp)
	movl	-8(%ebp), %eax
	movl	%eax, (%esp)
	call	_ZN5InboxD1Ev
	jmp	.L489
.L495:
	movl	%eax, -16(%ebp)
.L490:
	movl	-16(%ebp), %ebx
	movl	8(%ebp), %eax
	addl	$4, %eax
	movl	%eax, -8(%ebp)
	movl	-8(%ebp), %eax
	movl	%eax, (%esp)
	call	_ZN5InboxD1Ev
	movl	%ebx, -16(%ebp)
	movl	-16(%ebp), %eax
	movl	%eax, (%esp)
.LEHB45:
	call	_Unwind_Resume
.LEHE45:
.L489:
	movl	$0, %eax
	testb	%al, %al
	je	.L493
	movl	8(%ebp), %eax
	movl	%eax, (%esp)
	call	_ZdlPv
.L493:
	addl	$36, %esp
	popl	%ebx
	popl	%ebp
	ret
.LFE1845:
	.size	_ZN3LSPD1Ev, .-_ZN3LSPD1Ev
	.section	.gcc_except_table
.LLSDA1845:
	.byte	0xff
	.byte	0xff
	.byte	0x1
	.uleb128 .LLSDACSE1845-.LLSDACSB1845
.LLSDACSB1845:
	.uleb128 .LEHB43-.LFB1845
	.uleb128 .LEHE43-.LEHB43
	.uleb128 .L494-.LFB1845
	.uleb128 0x0
	.uleb128 .LEHB44-.LFB1845
	.uleb128 .LEHE44-.LEHB44
	.uleb128 .L495-.LFB1845
	.uleb128 0x0
	.uleb128 .LEHB45-.LFB1845
	.uleb128 .LEHE45-.LEHB45
	.uleb128 0x0
	.uleb128 0x0
.LLSDACSE1845:
	.section	.text._ZN3LSPD1Ev,"axG",@progbits,_ZN3LSPD1Ev,comdat
	.section	.text._ZN9ConnectorD0Ev,"axG",@progbits,_ZN9ConnectorD0Ev,comdat
	.align 2
	.weak	_ZN9ConnectorD0Ev
	.type	_ZN9ConnectorD0Ev, @function
_ZN9ConnectorD0Ev:
.LFB1804:
	pushl	%ebp
.LCFI440:
	movl	%esp, %ebp
.LCFI441:
	subl	$8, %esp
.LCFI442:
	movl	$_ZTV9Connector+8, %edx
	movl	8(%ebp), %eax
	movl	%edx, (%eax)
	movl	8(%ebp), %eax
	movl	8(%eax), %eax
	testl	%eax, %eax
	je	.L497
	movl	8(%ebp), %eax
	movl	8(%eax), %eax
	movl	%eax, (%esp)
	call	freeaddrinfo
.L497:
	movl	8(%ebp), %eax
	movl	16(%eax), %eax
	cmpl	$-1, %eax
	je	.L499
	movl	8(%ebp), %eax
	movl	16(%eax), %eax
	movl	%eax, (%esp)
	call	close
.L499:
	movl	$1, %eax
	testb	%al, %al
	je	.L503
	movl	8(%ebp), %eax
	movl	%eax, (%esp)
	call	_ZdlPv
.L503:
	leave
	ret
.LFE1804:
	.size	_ZN9ConnectorD0Ev, .-_ZN9ConnectorD0Ev
	.section	.rodata
.LC6:
	.string	"pthread_attr_init"
	.section	.text._ZN3LSP4initEv,"axG",@progbits,_ZN3LSP4initEv,comdat
	.align 2
	.weak	_ZN3LSP4initEv
	.type	_ZN3LSP4initEv, @function
_ZN3LSP4initEv:
.LFB1840:
	pushl	%ebp
.LCFI443:
	movl	%esp, %ebp
.LCFI444:
	subl	$8, %esp
.LCFI445:
	movl	8(%ebp), %eax
	addl	$64, %eax
	movl	%eax, (%esp)
	call	pthread_attr_init
	testl	%eax, %eax
	setne	%al
	testb	%al, %al
	je	.L507
	movl	$.LC6, (%esp)
	call	perror
	movl	$1, (%esp)
	call	exit
.L507:
	leave
	ret
.LFE1840:
	.size	_ZN3LSP4initEv, .-_ZN3LSP4initEv
	.section	.rodata
.LC7:
	.string	"pthread_create %d"
	.section	.text._ZN3LSP25start_msg_receiver_threadEv,"axG",@progbits,_ZN3LSP25start_msg_receiver_threadEv,comdat
	.align 2
	.weak	_ZN3LSP25start_msg_receiver_threadEv
	.type	_ZN3LSP25start_msg_receiver_threadEv, @function
_ZN3LSP25start_msg_receiver_threadEv:
.LFB1841:
	pushl	%ebp
.LCFI446:
	movl	%esp, %ebp
.LCFI447:
	subl	$40, %esp
.LCFI448:
	movl	$0, -8(%ebp)
	movl	8(%ebp), %eax
	movl	%eax, -8(%ebp)
	movl	8(%ebp), %edx
	addl	$64, %edx
	movl	8(%ebp), %ecx
	addl	$100, %ecx
	leal	-8(%ebp), %eax
	movl	%eax, 12(%esp)
	movl	$_Z12listener_runPv, 8(%esp)
	movl	%edx, 4(%esp)
	movl	%ecx, (%esp)
	call	pthread_create
	movl	%eax, -4(%ebp)
	cmpl	$0, -4(%ebp)
	setne	%al
	testb	%al, %al
	je	.L511
	movl	-4(%ebp), %eax
	movl	%eax, 4(%esp)
	movl	$.LC7, (%esp)
	call	_Z5ErrorPKcz
.L511:
	leave
	ret
.LFE1841:
	.size	_ZN3LSP25start_msg_receiver_threadEv, .-_ZN3LSP25start_msg_receiver_threadEv
	.section	.rodata
.LC8:
	.string	"5001"
	.section	.text._ZN10LSP_Server4initEv,"axG",@progbits,_ZN10LSP_Server4initEv,comdat
	.align 2
	.weak	_ZN10LSP_Server4initEv
	.type	_ZN10LSP_Server4initEv, @function
_ZN10LSP_Server4initEv:
.LFB1850:
	pushl	%ebp
.LCFI449:
	movl	%esp, %ebp
.LCFI450:
	subl	$24, %esp
.LCFI451:
	movl	8(%ebp), %eax
	movl	%eax, (%esp)
	call	_ZN3LSP4initEv
	movl	8(%ebp), %eax
	addl	$44, %eax
	movl	$.LC8, 8(%esp)
	movl	$0, 4(%esp)
	movl	%eax, (%esp)
	call	_ZN9Connector5setupEPcS0_
	movl	8(%ebp), %eax
	movl	%eax, (%esp)
	call	_ZN3LSP25start_msg_receiver_threadEv
	leave
	ret
.LFE1850:
	.size	_ZN10LSP_Server4initEv, .-_ZN10LSP_Server4initEv
	.text
	.align 2
.globl _Z7connectv
	.type	_Z7connectv, @function
_Z7connectv:
.LFB1863:
	pushl	%ebp
.LCFI452:
	movl	%esp, %ebp
.LCFI453:
	pushl	%ebx
.LCFI454:
	subl	$132, %esp
.LCFI455:
	movl	%gs:20, %eax
	movl	%eax, -8(%ebp)
	xorl	%eax, %eax
	leal	-112(%ebp), %eax
	movl	%eax, (%esp)
.LEHB46:
	call	_ZN10LSP_ServerC1Ev
.LEHE46:
	leal	-112(%ebp), %eax
	movl	%eax, (%esp)
.LEHB47:
	call	_ZN10LSP_Server4initEv
.LEHE47:
	leal	-112(%ebp), %eax
	movl	%eax, (%esp)
.LEHB48:
	call	_ZN10LSP_ServerD1Ev
.LEHE48:
	jmp	.L516
.L518:
	movl	%eax, -120(%ebp)
.L515:
	movl	-120(%ebp), %ebx
	leal	-112(%ebp), %eax
	movl	%eax, (%esp)
	call	_ZN10LSP_ServerD1Ev
	movl	%ebx, -120(%ebp)
	movl	-120(%ebp), %eax
	movl	%eax, (%esp)
.LEHB49:
	call	_Unwind_Resume
.LEHE49:
.L516:
	movl	-8(%ebp), %eax
	xorl	%gs:20, %eax
	je	.L517
	call	__stack_chk_fail
.L517:
	addl	$132, %esp
	popl	%ebx
	popl	%ebp
	ret
.LFE1863:
	.size	_Z7connectv, .-_Z7connectv
	.section	.gcc_except_table
.LLSDA1863:
	.byte	0xff
	.byte	0xff
	.byte	0x1
	.uleb128 .LLSDACSE1863-.LLSDACSB1863
.LLSDACSB1863:
	.uleb128 .LEHB46-.LFB1863
	.uleb128 .LEHE46-.LEHB46
	.uleb128 0x0
	.uleb128 0x0
	.uleb128 .LEHB47-.LFB1863
	.uleb128 .LEHE47-.LEHB47
	.uleb128 .L518-.LFB1863
	.uleb128 0x0
	.uleb128 .LEHB48-.LFB1863
	.uleb128 .LEHE48-.LEHB48
	.uleb128 0x0
	.uleb128 0x0
	.uleb128 .LEHB49-.LFB1863
	.uleb128 .LEHE49-.LEHB49
	.uleb128 0x0
	.uleb128 0x0
.LLSDACSE1863:
	.text
	.local	_ZSt8__ioinit
	.comm	_ZSt8__ioinit,1,1
	.weak	_ZTV10LSP_Server
	.section	.rodata._ZTV10LSP_Server,"aG",@progbits,_ZTV10LSP_Server,comdat
	.align 8
	.type	_ZTV10LSP_Server, @object
	.size	_ZTV10LSP_Server, 16
_ZTV10LSP_Server:
	.long	0
	.long	_ZTI10LSP_Server
	.long	_ZN10LSP_ServerD1Ev
	.long	_ZN10LSP_ServerD0Ev
	.weak	_ZTI10LSP_Server
	.section	.rodata._ZTI10LSP_Server,"aG",@progbits,_ZTI10LSP_Server,comdat
	.align 4
	.type	_ZTI10LSP_Server, @object
	.size	_ZTI10LSP_Server, 12
_ZTI10LSP_Server:
	.long	_ZTVN10__cxxabiv120__si_class_type_infoE+8
	.long	_ZTS10LSP_Server
	.long	_ZTI3LSP
	.weak	_ZTS10LSP_Server
	.section	.rodata._ZTS10LSP_Server,"aG",@progbits,_ZTS10LSP_Server,comdat
	.type	_ZTS10LSP_Server, @object
	.size	_ZTS10LSP_Server, 13
_ZTS10LSP_Server:
	.string	"10LSP_Server"
	.weak	_ZTI3LSP
	.section	.rodata._ZTI3LSP,"aG",@progbits,_ZTI3LSP,comdat
	.align 4
	.type	_ZTI3LSP, @object
	.size	_ZTI3LSP, 12
_ZTI3LSP:
	.long	_ZTVN10__cxxabiv120__si_class_type_infoE+8
	.long	_ZTS3LSP
	.long	_ZTI10Uncopyable
	.weak	_ZTS3LSP
	.section	.rodata._ZTS3LSP,"aG",@progbits,_ZTS3LSP,comdat
	.type	_ZTS3LSP, @object
	.size	_ZTS3LSP, 5
_ZTS3LSP:
	.string	"3LSP"
	.weak	_ZTI10Uncopyable
	.section	.rodata._ZTI10Uncopyable,"aG",@progbits,_ZTI10Uncopyable,comdat
	.align 4
	.type	_ZTI10Uncopyable, @object
	.size	_ZTI10Uncopyable, 8
_ZTI10Uncopyable:
	.long	_ZTVN10__cxxabiv117__class_type_infoE+8
	.long	_ZTS10Uncopyable
	.weak	_ZTS10Uncopyable
	.section	.rodata._ZTS10Uncopyable,"aG",@progbits,_ZTS10Uncopyable,comdat
	.type	_ZTS10Uncopyable, @object
	.size	_ZTS10Uncopyable, 13
_ZTS10Uncopyable:
	.string	"10Uncopyable"
	.weak	_ZTV3LSP
	.section	.rodata._ZTV3LSP,"aG",@progbits,_ZTV3LSP,comdat
	.align 8
	.type	_ZTV3LSP, @object
	.size	_ZTV3LSP, 16
_ZTV3LSP:
	.long	0
	.long	_ZTI3LSP
	.long	_ZN3LSPD1Ev
	.long	_ZN3LSPD0Ev
	.weak	_ZTV9Connector
	.section	.rodata._ZTV9Connector,"aG",@progbits,_ZTV9Connector,comdat
	.align 8
	.type	_ZTV9Connector, @object
	.size	_ZTV9Connector, 16
_ZTV9Connector:
	.long	0
	.long	_ZTI9Connector
	.long	_ZN9ConnectorD1Ev
	.long	_ZN9ConnectorD0Ev
	.weak	_ZTI9Connector
	.section	.rodata._ZTI9Connector,"aG",@progbits,_ZTI9Connector,comdat
	.align 4
	.type	_ZTI9Connector, @object
	.size	_ZTI9Connector, 12
_ZTI9Connector:
	.long	_ZTVN10__cxxabiv120__si_class_type_infoE+8
	.long	_ZTS9Connector
	.long	_ZTI10Uncopyable
	.weak	_ZTS9Connector
	.section	.rodata._ZTS9Connector,"aG",@progbits,_ZTS9Connector,comdat
	.type	_ZTS9Connector, @object
	.size	_ZTS9Connector, 11
_ZTS9Connector:
	.string	"9Connector"
	.weakref	_Z20__gthrw_pthread_oncePiPFvvE,pthread_once
	.weakref	_Z27__gthrw_pthread_getspecificj,pthread_getspecific
	.weakref	_Z27__gthrw_pthread_setspecificjPKv,pthread_setspecific
	.weakref	_Z22__gthrw_pthread_createPmPK14pthread_attr_tPFPvS3_ES3_,pthread_create
	.weakref	_Z22__gthrw_pthread_cancelm,pthread_cancel
	.weakref	_Z26__gthrw_pthread_mutex_lockP15pthread_mutex_t,pthread_mutex_lock
	.weakref	_Z29__gthrw_pthread_mutex_trylockP15pthread_mutex_t,pthread_mutex_trylock
	.weakref	_Z28__gthrw_pthread_mutex_unlockP15pthread_mutex_t,pthread_mutex_unlock
	.weakref	_Z26__gthrw_pthread_mutex_initP15pthread_mutex_tPK19pthread_mutexattr_t,pthread_mutex_init
	.weakref	_Z26__gthrw_pthread_key_createPjPFvPvE,pthread_key_create
	.weakref	_Z26__gthrw_pthread_key_deletej,pthread_key_delete
	.weakref	_Z30__gthrw_pthread_mutexattr_initP19pthread_mutexattr_t,pthread_mutexattr_init
	.weakref	_Z33__gthrw_pthread_mutexattr_settypeP19pthread_mutexattr_ti,pthread_mutexattr_settype
	.weakref	_Z33__gthrw_pthread_mutexattr_destroyP19pthread_mutexattr_t,pthread_mutexattr_destroy
	.section	.eh_frame,"a",@progbits
.Lframe1:
	.long	.LECIE1-.LSCIE1
.LSCIE1:
	.long	0x0
	.byte	0x1
	.string	"zPL"
	.uleb128 0x1
	.sleb128 -4
	.byte	0x8
	.uleb128 0x6
	.byte	0x0
	.long	__gxx_personality_v0
	.byte	0x0
	.byte	0xc
	.uleb128 0x4
	.uleb128 0x4
	.byte	0x88
	.uleb128 0x1
	.align 4
.LECIE1:
.LSFDE13:
	.long	.LEFDE13-.LASFDE13
.LASFDE13:
	.long	.LASFDE13-.Lframe1
	.long	.LFB1358
	.long	.LFE1358-.LFB1358
	.uleb128 0x4
	.long	0x0
	.byte	0x4
	.long	.LCFI15-.LFB1358
	.byte	0xe
	.uleb128 0x8
	.byte	0x85
	.uleb128 0x2
	.byte	0x4
	.long	.LCFI16-.LCFI15
	.byte	0xd
	.uleb128 0x5
	.byte	0x4
	.long	.LCFI18-.LCFI16
	.byte	0x83
	.uleb128 0x3
	.align 4
.LEFDE13:
.LSFDE153:
	.long	.LEFDE153-.LASFDE153
.LASFDE153:
	.long	.LASFDE153-.Lframe1
	.long	.LFB2092
	.long	.LFE2092-.LFB2092
	.uleb128 0x4
	.long	0x0
	.byte	0x4
	.long	.LCFI208-.LFB2092
	.byte	0xe
	.uleb128 0x8
	.byte	0x85
	.uleb128 0x2
	.byte	0x4
	.long	.LCFI209-.LCFI208
	.byte	0xd
	.uleb128 0x5
	.align 4
.LEFDE153:
.LSFDE155:
	.long	.LEFDE155-.LASFDE155
.LASFDE155:
	.long	.LASFDE155-.Lframe1
	.long	.LFB2094
	.long	.LFE2094-.LFB2094
	.uleb128 0x4
	.long	0x0
	.byte	0x4
	.long	.LCFI211-.LFB2094
	.byte	0xe
	.uleb128 0x8
	.byte	0x85
	.uleb128 0x2
	.byte	0x4
	.long	.LCFI212-.LCFI211
	.byte	0xd
	.uleb128 0x5
	.align 4
.LEFDE155:
.LSFDE157:
	.long	.LEFDE157-.LASFDE157
.LASFDE157:
	.long	.LASFDE157-.Lframe1
	.long	.LFB2093
	.long	.LFE2093-.LFB2093
	.uleb128 0x4
	.long	0x0
	.byte	0x4
	.long	.LCFI214-.LFB2093
	.byte	0xe
	.uleb128 0x8
	.byte	0x85
	.uleb128 0x2
	.byte	0x4
	.long	.LCFI215-.LCFI214
	.byte	0xd
	.uleb128 0x5
	.align 4
.LEFDE157:
.LSFDE159:
	.long	.LEFDE159-.LASFDE159
.LASFDE159:
	.long	.LASFDE159-.Lframe1
	.long	.LFB2046
	.long	.LFE2046-.LFB2046
	.uleb128 0x4
	.long	0x0
	.byte	0x4
	.long	.LCFI217-.LFB2046
	.byte	0xe
	.uleb128 0x8
	.byte	0x85
	.uleb128 0x2
	.byte	0x4
	.long	.LCFI218-.LCFI217
	.byte	0xd
	.uleb128 0x5
	.align 4
.LEFDE159:
.LSFDE161:
	.long	.LEFDE161-.LASFDE161
.LASFDE161:
	.long	.LASFDE161-.Lframe1
	.long	.LFB2027
	.long	.LFE2027-.LFB2027
	.uleb128 0x4
	.long	.LLSDA2027
	.byte	0x4
	.long	.LCFI220-.LFB2027
	.byte	0xe
	.uleb128 0x8
	.byte	0x85
	.uleb128 0x2
	.byte	0x4
	.long	.LCFI221-.LCFI220
	.byte	0xd
	.uleb128 0x5
	.byte	0x4
	.long	.LCFI223-.LCFI221
	.byte	0x83
	.uleb128 0x3
	.align 4
.LEFDE161:
.LSFDE163:
	.long	.LEFDE163-.LASFDE163
.LASFDE163:
	.long	.LASFDE163-.Lframe1
	.long	.LFB2070
	.long	.LFE2070-.LFB2070
	.uleb128 0x4
	.long	0x0
	.byte	0x4
	.long	.LCFI224-.LFB2070
	.byte	0xe
	.uleb128 0x8
	.byte	0x85
	.uleb128 0x2
	.byte	0x4
	.long	.LCFI225-.LCFI224
	.byte	0xd
	.uleb128 0x5
	.align 4
.LEFDE163:
.LSFDE165:
	.long	.LEFDE165-.LASFDE165
.LASFDE165:
	.long	.LASFDE165-.Lframe1
	.long	.LFB2047
	.long	.LFE2047-.LFB2047
	.uleb128 0x4
	.long	0x0
	.byte	0x4
	.long	.LCFI227-.LFB2047
	.byte	0xe
	.uleb128 0x8
	.byte	0x85
	.uleb128 0x2
	.byte	0x4
	.long	.LCFI228-.LCFI227
	.byte	0xd
	.uleb128 0x5
	.align 4
.LEFDE165:
.LSFDE167:
	.long	.LEFDE167-.LASFDE167
.LASFDE167:
	.long	.LASFDE167-.Lframe1
	.long	.LFB2044
	.long	.LFE2044-.LFB2044
	.uleb128 0x4
	.long	0x0
	.byte	0x4
	.long	.LCFI230-.LFB2044
	.byte	0xe
	.uleb128 0x8
	.byte	0x85
	.uleb128 0x2
	.byte	0x4
	.long	.LCFI231-.LCFI230
	.byte	0xd
	.uleb128 0x5
	.align 4
.LEFDE167:
.LSFDE169:
	.long	.LEFDE169-.LASFDE169
.LASFDE169:
	.long	.LASFDE169-.Lframe1
	.long	.LFB2018
	.long	.LFE2018-.LFB2018
	.uleb128 0x4
	.long	0x0
	.byte	0x4
	.long	.LCFI233-.LFB2018
	.byte	0xe
	.uleb128 0x8
	.byte	0x85
	.uleb128 0x2
	.byte	0x4
	.long	.LCFI234-.LCFI233
	.byte	0xd
	.uleb128 0x5
	.align 4
.LEFDE169:
.LSFDE177:
	.long	.LEFDE177-.LASFDE177
.LASFDE177:
	.long	.LASFDE177-.Lframe1
	.long	.LFB2028
	.long	.LFE2028-.LFB2028
	.uleb128 0x4
	.long	.LLSDA2028
	.byte	0x4
	.long	.LCFI245-.LFB2028
	.byte	0xe
	.uleb128 0x8
	.byte	0x85
	.uleb128 0x2
	.byte	0x4
	.long	.LCFI246-.LCFI245
	.byte	0xd
	.uleb128 0x5
	.byte	0x4
	.long	.LCFI248-.LCFI246
	.byte	0x83
	.uleb128 0x3
	.align 4
.LEFDE177:
.LSFDE183:
	.long	.LEFDE183-.LASFDE183
.LASFDE183:
	.long	.LASFDE183-.Lframe1
	.long	.LFB2000
	.long	.LFE2000-.LFB2000
	.uleb128 0x4
	.long	.LLSDA2000
	.byte	0x4
	.long	.LCFI255-.LFB2000
	.byte	0xe
	.uleb128 0x8
	.byte	0x85
	.uleb128 0x2
	.byte	0x4
	.long	.LCFI256-.LCFI255
	.byte	0xd
	.uleb128 0x5
	.byte	0x4
	.long	.LCFI258-.LCFI256
	.byte	0x83
	.uleb128 0x3
	.align 4
.LEFDE183:
.LSFDE185:
	.long	.LEFDE185-.LASFDE185
.LASFDE185:
	.long	.LASFDE185-.Lframe1
	.long	.LFB1947
	.long	.LFE1947-.LFB1947
	.uleb128 0x4
	.long	.LLSDA1947
	.byte	0x4
	.long	.LCFI259-.LFB1947
	.byte	0xe
	.uleb128 0x8
	.byte	0x85
	.uleb128 0x2
	.byte	0x4
	.long	.LCFI260-.LCFI259
	.byte	0xd
	.uleb128 0x5
	.byte	0x4
	.long	.LCFI262-.LCFI260
	.byte	0x83
	.uleb128 0x3
	.align 4
.LEFDE185:
.LSFDE187:
	.long	.LEFDE187-.LASFDE187
.LASFDE187:
	.long	.LASFDE187-.Lframe1
	.long	.LFB1891
	.long	.LFE1891-.LFB1891
	.uleb128 0x4
	.long	0x0
	.byte	0x4
	.long	.LCFI263-.LFB1891
	.byte	0xe
	.uleb128 0x8
	.byte	0x85
	.uleb128 0x2
	.byte	0x4
	.long	.LCFI264-.LCFI263
	.byte	0xd
	.uleb128 0x5
	.align 4
.LEFDE187:
.LSFDE215:
	.long	.LEFDE215-.LASFDE215
.LASFDE215:
	.long	.LASFDE215-.Lframe1
	.long	.LFB1867
	.long	.LFE1867-.LFB1867
	.uleb128 0x4
	.long	0x0
	.byte	0x4
	.long	.LCFI307-.LFB1867
	.byte	0xe
	.uleb128 0x8
	.byte	0x85
	.uleb128 0x2
	.byte	0x4
	.long	.LCFI308-.LCFI307
	.byte	0xd
	.uleb128 0x5
	.align 4
.LEFDE215:
.LSFDE227:
	.long	.LEFDE227-.LASFDE227
.LASFDE227:
	.long	.LASFDE227-.Lframe1
	.long	.LFB1810
	.long	.LFE1810-.LFB1810
	.uleb128 0x4
	.long	0x0
	.byte	0x4
	.long	.LCFI325-.LFB1810
	.byte	0xe
	.uleb128 0x8
	.byte	0x85
	.uleb128 0x2
	.byte	0x4
	.long	.LCFI326-.LCFI325
	.byte	0xd
	.uleb128 0x5
	.align 4
.LEFDE227:
.LSFDE229:
	.long	.LEFDE229-.LASFDE229
.LASFDE229:
	.long	.LASFDE229-.Lframe1
	.long	.LFB2065
	.long	.LFE2065-.LFB2065
	.uleb128 0x4
	.long	.LLSDA2065
	.byte	0x4
	.long	.LCFI328-.LFB2065
	.byte	0xe
	.uleb128 0x8
	.byte	0x85
	.uleb128 0x2
	.byte	0x4
	.long	.LCFI329-.LCFI328
	.byte	0xd
	.uleb128 0x5
	.byte	0x4
	.long	.LCFI331-.LCFI329
	.byte	0x83
	.uleb128 0x3
	.align 4
.LEFDE229:
.LSFDE231:
	.long	.LEFDE231-.LASFDE231
.LASFDE231:
	.long	.LASFDE231-.Lframe1
	.long	.LFB2038
	.long	.LFE2038-.LFB2038
	.uleb128 0x4
	.long	.LLSDA2038
	.byte	0x4
	.long	.LCFI332-.LFB2038
	.byte	0xe
	.uleb128 0x8
	.byte	0x85
	.uleb128 0x2
	.byte	0x4
	.long	.LCFI333-.LCFI332
	.byte	0xd
	.uleb128 0x5
	.byte	0x4
	.long	.LCFI335-.LCFI333
	.byte	0x83
	.uleb128 0x3
	.align 4
.LEFDE231:
.LSFDE233:
	.long	.LEFDE233-.LASFDE233
.LASFDE233:
	.long	.LASFDE233-.Lframe1
	.long	.LFB2008
	.long	.LFE2008-.LFB2008
	.uleb128 0x4
	.long	0x0
	.byte	0x4
	.long	.LCFI336-.LFB2008
	.byte	0xe
	.uleb128 0x8
	.byte	0x85
	.uleb128 0x2
	.byte	0x4
	.long	.LCFI337-.LCFI336
	.byte	0xd
	.uleb128 0x5
	.byte	0x4
	.long	.LCFI340-.LCFI337
	.byte	0x83
	.uleb128 0x4
	.byte	0x86
	.uleb128 0x3
	.align 4
.LEFDE233:
.LSFDE235:
	.long	.LEFDE235-.LASFDE235
.LASFDE235:
	.long	.LASFDE235-.Lframe1
	.long	.LFB1963
	.long	.LFE1963-.LFB1963
	.uleb128 0x4
	.long	0x0
	.byte	0x4
	.long	.LCFI341-.LFB1963
	.byte	0xe
	.uleb128 0x8
	.byte	0x85
	.uleb128 0x2
	.byte	0x4
	.long	.LCFI342-.LCFI341
	.byte	0xd
	.uleb128 0x5
	.byte	0x4
	.long	.LCFI345-.LCFI342
	.byte	0x83
	.uleb128 0x4
	.byte	0x86
	.uleb128 0x3
	.align 4
.LEFDE235:
.LSFDE237:
	.long	.LEFDE237-.LASFDE237
.LASFDE237:
	.long	.LASFDE237-.Lframe1
	.long	.LFB1897
	.long	.LFE1897-.LFB1897
	.uleb128 0x4
	.long	.LLSDA1897
	.byte	0x4
	.long	.LCFI346-.LFB1897
	.byte	0xe
	.uleb128 0x8
	.byte	0x85
	.uleb128 0x2
	.byte	0x4
	.long	.LCFI347-.LCFI346
	.byte	0xd
	.uleb128 0x5
	.byte	0x4
	.long	.LCFI349-.LCFI347
	.byte	0x83
	.uleb128 0x3
	.align 4
.LEFDE237:
.LSFDE239:
	.long	.LEFDE239-.LASFDE239
.LASFDE239:
	.long	.LASFDE239-.Lframe1
	.long	.LFB1900
	.long	.LFE1900-.LFB1900
	.uleb128 0x4
	.long	0x0
	.byte	0x4
	.long	.LCFI350-.LFB1900
	.byte	0xe
	.uleb128 0x8
	.byte	0x85
	.uleb128 0x2
	.byte	0x4
	.long	.LCFI351-.LCFI350
	.byte	0xd
	.uleb128 0x5
	.align 4
.LEFDE239:
.LSFDE241:
	.long	.LEFDE241-.LASFDE241
.LASFDE241:
	.long	.LASFDE241-.Lframe1
	.long	.LFB1824
	.long	.LFE1824-.LFB1824
	.uleb128 0x4
	.long	.LLSDA1824
	.byte	0x4
	.long	.LCFI353-.LFB1824
	.byte	0xe
	.uleb128 0x8
	.byte	0x85
	.uleb128 0x2
	.byte	0x4
	.long	.LCFI354-.LCFI353
	.byte	0xd
	.uleb128 0x5
	.byte	0x4
	.long	.LCFI356-.LCFI354
	.byte	0x83
	.uleb128 0x3
	.align 4
.LEFDE241:
.LSFDE243:
	.long	.LEFDE243-.LASFDE243
.LASFDE243:
	.long	.LASFDE243-.Lframe1
	.long	.LFB1834
	.long	.LFE1834-.LFB1834
	.uleb128 0x4
	.long	.LLSDA1834
	.byte	0x4
	.long	.LCFI357-.LFB1834
	.byte	0xe
	.uleb128 0x8
	.byte	0x85
	.uleb128 0x2
	.byte	0x4
	.long	.LCFI358-.LCFI357
	.byte	0xd
	.uleb128 0x5
	.byte	0x4
	.long	.LCFI360-.LCFI358
	.byte	0x83
	.uleb128 0x3
	.align 4
.LEFDE243:
.LSFDE245:
	.long	.LEFDE245-.LASFDE245
.LASFDE245:
	.long	.LASFDE245-.Lframe1
	.long	.LFB1838
	.long	.LFE1838-.LFB1838
	.uleb128 0x4
	.long	0x0
	.byte	0x4
	.long	.LCFI361-.LFB1838
	.byte	0xe
	.uleb128 0x8
	.byte	0x85
	.uleb128 0x2
	.byte	0x4
	.long	.LCFI362-.LCFI361
	.byte	0xd
	.uleb128 0x5
	.align 4
.LEFDE245:
.LSFDE247:
	.long	.LEFDE247-.LASFDE247
.LASFDE247:
	.long	.LASFDE247-.Lframe1
	.long	.LFB1849
	.long	.LFE1849-.LFB1849
	.uleb128 0x4
	.long	0x0
	.byte	0x4
	.long	.LCFI364-.LFB1849
	.byte	0xe
	.uleb128 0x8
	.byte	0x85
	.uleb128 0x2
	.byte	0x4
	.long	.LCFI365-.LCFI364
	.byte	0xd
	.uleb128 0x5
	.align 4
.LEFDE247:
.LSFDE271:
	.long	.LEFDE271-.LASFDE271
.LASFDE271:
	.long	.LASFDE271-.Lframe1
	.long	.LFB1994
	.long	.LFE1994-.LFB1994
	.uleb128 0x4
	.long	0x0
	.byte	0x4
	.long	.LCFI401-.LFB1994
	.byte	0xe
	.uleb128 0x8
	.byte	0x85
	.uleb128 0x2
	.byte	0x4
	.long	.LCFI402-.LCFI401
	.byte	0xd
	.uleb128 0x5
	.byte	0x4
	.long	.LCFI405-.LCFI402
	.byte	0x83
	.uleb128 0x4
	.byte	0x86
	.uleb128 0x3
	.align 4
.LEFDE271:
.LSFDE273:
	.long	.LEFDE273-.LASFDE273
.LASFDE273:
	.long	.LASFDE273-.Lframe1
	.long	.LFB1925
	.long	.LFE1925-.LFB1925
	.uleb128 0x4
	.long	0x0
	.byte	0x4
	.long	.LCFI406-.LFB1925
	.byte	0xe
	.uleb128 0x8
	.byte	0x85
	.uleb128 0x2
	.byte	0x4
	.long	.LCFI407-.LCFI406
	.byte	0xd
	.uleb128 0x5
	.align 4
.LEFDE273:
.LSFDE275:
	.long	.LEFDE275-.LASFDE275
.LASFDE275:
	.long	.LASFDE275-.Lframe1
	.long	.LFB1864
	.long	.LFE1864-.LFB1864
	.uleb128 0x4
	.long	.LLSDA1864
	.byte	0x4
	.long	.LCFI409-.LFB1864
	.byte	0xe
	.uleb128 0x8
	.byte	0x85
	.uleb128 0x2
	.byte	0x4
	.long	.LCFI410-.LCFI409
	.byte	0xd
	.uleb128 0x5
	.byte	0x4
	.long	.LCFI412-.LCFI410
	.byte	0x83
	.uleb128 0x3
	.align 4
.LEFDE275:
.LSFDE277:
	.long	.LEFDE277-.LASFDE277
.LASFDE277:
	.long	.LASFDE277-.Lframe1
	.long	.LFB1868
	.long	.LFE1868-.LFB1868
	.uleb128 0x4
	.long	0x0
	.byte	0x4
	.long	.LCFI413-.LFB1868
	.byte	0xc
	.uleb128 0x1
	.uleb128 0x0
	.byte	0x9
	.uleb128 0x4
	.uleb128 0x1
	.byte	0x4
	.long	.LCFI414-.LCFI413
	.byte	0xc
	.uleb128 0x4
	.uleb128 0x4
	.byte	0x4
	.long	.LCFI415-.LCFI414
	.byte	0xe
	.uleb128 0x8
	.byte	0x85
	.uleb128 0x2
	.byte	0x4
	.long	.LCFI416-.LCFI415
	.byte	0xd
	.uleb128 0x5
	.byte	0x4
	.long	.LCFI417-.LCFI416
	.byte	0x84
	.uleb128 0x3
	.align 4
.LEFDE277:
.LSFDE279:
	.long	.LEFDE279-.LASFDE279
.LASFDE279:
	.long	.LASFDE279-.Lframe1
	.long	.LFB1803
	.long	.LFE1803-.LFB1803
	.uleb128 0x4
	.long	0x0
	.byte	0x4
	.long	.LCFI419-.LFB1803
	.byte	0xe
	.uleb128 0x8
	.byte	0x85
	.uleb128 0x2
	.byte	0x4
	.long	.LCFI420-.LCFI419
	.byte	0xd
	.uleb128 0x5
	.align 4
.LEFDE279:
.LSFDE281:
	.long	.LEFDE281-.LASFDE281
.LASFDE281:
	.long	.LASFDE281-.Lframe1
	.long	.LFB1844
	.long	.LFE1844-.LFB1844
	.uleb128 0x4
	.long	.LLSDA1844
	.byte	0x4
	.long	.LCFI422-.LFB1844
	.byte	0xe
	.uleb128 0x8
	.byte	0x85
	.uleb128 0x2
	.byte	0x4
	.long	.LCFI423-.LCFI422
	.byte	0xd
	.uleb128 0x5
	.byte	0x4
	.long	.LCFI425-.LCFI423
	.byte	0x83
	.uleb128 0x3
	.align 4
.LEFDE281:
.LSFDE283:
	.long	.LEFDE283-.LASFDE283
.LASFDE283:
	.long	.LASFDE283-.Lframe1
	.long	.LFB1854
	.long	.LFE1854-.LFB1854
	.uleb128 0x4
	.long	0x0
	.byte	0x4
	.long	.LCFI426-.LFB1854
	.byte	0xe
	.uleb128 0x8
	.byte	0x85
	.uleb128 0x2
	.byte	0x4
	.long	.LCFI427-.LCFI426
	.byte	0xd
	.uleb128 0x5
	.align 4
.LEFDE283:
.LSFDE285:
	.long	.LEFDE285-.LASFDE285
.LASFDE285:
	.long	.LASFDE285-.Lframe1
	.long	.LFB1853
	.long	.LFE1853-.LFB1853
	.uleb128 0x4
	.long	0x0
	.byte	0x4
	.long	.LCFI429-.LFB1853
	.byte	0xe
	.uleb128 0x8
	.byte	0x85
	.uleb128 0x2
	.byte	0x4
	.long	.LCFI430-.LCFI429
	.byte	0xd
	.uleb128 0x5
	.align 4
.LEFDE285:
.LSFDE287:
	.long	.LEFDE287-.LASFDE287
.LASFDE287:
	.long	.LASFDE287-.Lframe1
	.long	.LFB1846
	.long	.LFE1846-.LFB1846
	.uleb128 0x4
	.long	.LLSDA1846
	.byte	0x4
	.long	.LCFI432-.LFB1846
	.byte	0xe
	.uleb128 0x8
	.byte	0x85
	.uleb128 0x2
	.byte	0x4
	.long	.LCFI433-.LCFI432
	.byte	0xd
	.uleb128 0x5
	.byte	0x4
	.long	.LCFI435-.LCFI433
	.byte	0x83
	.uleb128 0x3
	.align 4
.LEFDE287:
.LSFDE289:
	.long	.LEFDE289-.LASFDE289
.LASFDE289:
	.long	.LASFDE289-.Lframe1
	.long	.LFB1845
	.long	.LFE1845-.LFB1845
	.uleb128 0x4
	.long	.LLSDA1845
	.byte	0x4
	.long	.LCFI436-.LFB1845
	.byte	0xe
	.uleb128 0x8
	.byte	0x85
	.uleb128 0x2
	.byte	0x4
	.long	.LCFI437-.LCFI436
	.byte	0xd
	.uleb128 0x5
	.byte	0x4
	.long	.LCFI439-.LCFI437
	.byte	0x83
	.uleb128 0x3
	.align 4
.LEFDE289:
.LSFDE291:
	.long	.LEFDE291-.LASFDE291
.LASFDE291:
	.long	.LASFDE291-.Lframe1
	.long	.LFB1804
	.long	.LFE1804-.LFB1804
	.uleb128 0x4
	.long	0x0
	.byte	0x4
	.long	.LCFI440-.LFB1804
	.byte	0xe
	.uleb128 0x8
	.byte	0x85
	.uleb128 0x2
	.byte	0x4
	.long	.LCFI441-.LCFI440
	.byte	0xd
	.uleb128 0x5
	.align 4
.LEFDE291:
.LSFDE293:
	.long	.LEFDE293-.LASFDE293
.LASFDE293:
	.long	.LASFDE293-.Lframe1
	.long	.LFB1840
	.long	.LFE1840-.LFB1840
	.uleb128 0x4
	.long	0x0
	.byte	0x4
	.long	.LCFI443-.LFB1840
	.byte	0xe
	.uleb128 0x8
	.byte	0x85
	.uleb128 0x2
	.byte	0x4
	.long	.LCFI444-.LCFI443
	.byte	0xd
	.uleb128 0x5
	.align 4
.LEFDE293:
.LSFDE295:
	.long	.LEFDE295-.LASFDE295
.LASFDE295:
	.long	.LASFDE295-.Lframe1
	.long	.LFB1841
	.long	.LFE1841-.LFB1841
	.uleb128 0x4
	.long	0x0
	.byte	0x4
	.long	.LCFI446-.LFB1841
	.byte	0xe
	.uleb128 0x8
	.byte	0x85
	.uleb128 0x2
	.byte	0x4
	.long	.LCFI447-.LCFI446
	.byte	0xd
	.uleb128 0x5
	.align 4
.LEFDE295:
.LSFDE297:
	.long	.LEFDE297-.LASFDE297
.LASFDE297:
	.long	.LASFDE297-.Lframe1
	.long	.LFB1850
	.long	.LFE1850-.LFB1850
	.uleb128 0x4
	.long	0x0
	.byte	0x4
	.long	.LCFI449-.LFB1850
	.byte	0xe
	.uleb128 0x8
	.byte	0x85
	.uleb128 0x2
	.byte	0x4
	.long	.LCFI450-.LCFI449
	.byte	0xd
	.uleb128 0x5
	.align 4
.LEFDE297:
.LSFDE299:
	.long	.LEFDE299-.LASFDE299
.LASFDE299:
	.long	.LASFDE299-.Lframe1
	.long	.LFB1863
	.long	.LFE1863-.LFB1863
	.uleb128 0x4
	.long	.LLSDA1863
	.byte	0x4
	.long	.LCFI452-.LFB1863
	.byte	0xe
	.uleb128 0x8
	.byte	0x85
	.uleb128 0x2
	.byte	0x4
	.long	.LCFI453-.LCFI452
	.byte	0xd
	.uleb128 0x5
	.byte	0x4
	.long	.LCFI455-.LCFI453
	.byte	0x83
	.uleb128 0x3
	.align 4
.LEFDE299:
	.ident	"GCC: (GNU) 4.2.4 (Ubuntu 4.2.4-1ubuntu4)"
	.section	.note.GNU-stack,"",@progbits
